
cfi_icall:     file format elf64-x86-64


Disassembly of section .init:

0000000000403000 <_init>:
  403000:	f3 0f 1e fa          	endbr64 
  403004:	48 83 ec 08          	sub    $0x8,%rsp
  403008:	48 8b 05 b1 3f 03 00 	mov    0x33fb1(%rip),%rax        # 436fc0 <__gmon_start__>
  40300f:	48 85 c0             	test   %rax,%rax
  403012:	74 02                	je     403016 <_init+0x16>
  403014:	ff d0                	callq  *%rax
  403016:	48 83 c4 08          	add    $0x8,%rsp
  40301a:	c3                   	retq   

Disassembly of section .plt:

0000000000403020 <.plt>:
  403020:	ff 35 e2 3f 03 00    	pushq  0x33fe2(%rip)        # 437008 <_GLOBAL_OFFSET_TABLE_+0x8>
  403026:	ff 25 e4 3f 03 00    	jmpq   *0x33fe4(%rip)        # 437010 <_GLOBAL_OFFSET_TABLE_+0x10>
  40302c:	0f 1f 40 00          	nopl   0x0(%rax)

0000000000403030 <dl_iterate_phdr@plt>:
  403030:	ff 25 e2 3f 03 00    	jmpq   *0x33fe2(%rip)        # 437018 <dl_iterate_phdr@GLIBC_2.2.5>
  403036:	68 00 00 00 00       	pushq  $0x0
  40303b:	e9 e0 ff ff ff       	jmpq   403020 <.plt>

0000000000403040 <abort@plt>:
  403040:	ff 25 da 3f 03 00    	jmpq   *0x33fda(%rip)        # 437020 <abort@GLIBC_2.2.5>
  403046:	68 01 00 00 00       	pushq  $0x1
  40304b:	e9 d0 ff ff ff       	jmpq   403020 <.plt>

0000000000403050 <_Unwind_Backtrace@plt>:
  403050:	ff 25 d2 3f 03 00    	jmpq   *0x33fd2(%rip)        # 437028 <_Unwind_Backtrace@GCC_3.3>
  403056:	68 02 00 00 00       	pushq  $0x2
  40305b:	e9 c0 ff ff ff       	jmpq   403020 <.plt>

0000000000403060 <__errno_location@plt>:
  403060:	ff 25 ca 3f 03 00    	jmpq   *0x33fca(%rip)        # 437030 <__errno_location@GLIBC_2.2.5>
  403066:	68 03 00 00 00       	pushq  $0x3
  40306b:	e9 b0 ff ff ff       	jmpq   403020 <.plt>

0000000000403070 <pthread_getattr_np@plt>:
  403070:	ff 25 c2 3f 03 00    	jmpq   *0x33fc2(%rip)        # 437038 <pthread_getattr_np@GLIBC_2.2.5>
  403076:	68 04 00 00 00       	pushq  $0x4
  40307b:	e9 a0 ff ff ff       	jmpq   403020 <.plt>

0000000000403080 <__ubsan_handle_cfi_bad_type@plt>:
  403080:	ff 25 ba 3f 03 00    	jmpq   *0x33fba(%rip)        # 437040 <__ubsan_handle_cfi_bad_type>
  403086:	68 05 00 00 00       	pushq  $0x5
  40308b:	e9 90 ff ff ff       	jmpq   403020 <.plt>

0000000000403090 <isatty@plt>:
  403090:	ff 25 b2 3f 03 00    	jmpq   *0x33fb2(%rip)        # 437048 <isatty@GLIBC_2.2.5>
  403096:	68 06 00 00 00       	pushq  $0x6
  40309b:	e9 80 ff ff ff       	jmpq   403020 <.plt>

00000000004030a0 <clock_gettime@plt>:
  4030a0:	ff 25 aa 3f 03 00    	jmpq   *0x33faa(%rip)        # 437050 <clock_gettime@GLIBC_2.17>
  4030a6:	68 07 00 00 00       	pushq  $0x7
  4030ab:	e9 70 ff ff ff       	jmpq   403020 <.plt>

00000000004030b0 <__sched_cpucount@plt>:
  4030b0:	ff 25 a2 3f 03 00    	jmpq   *0x33fa2(%rip)        # 437058 <__sched_cpucount@GLIBC_2.6>
  4030b6:	68 08 00 00 00       	pushq  $0x8
  4030bb:	e9 60 ff ff ff       	jmpq   403020 <.plt>

00000000004030c0 <getuid@plt>:
  4030c0:	ff 25 9a 3f 03 00    	jmpq   *0x33f9a(%rip)        # 437060 <getuid@GLIBC_2.2.5>
  4030c6:	68 09 00 00 00       	pushq  $0x9
  4030cb:	e9 50 ff ff ff       	jmpq   403020 <.plt>

00000000004030d0 <printf@plt>:
  4030d0:	ff 25 92 3f 03 00    	jmpq   *0x33f92(%rip)        # 437068 <printf@GLIBC_2.2.5>
  4030d6:	68 0a 00 00 00       	pushq  $0xa
  4030db:	e9 40 ff ff ff       	jmpq   403020 <.plt>

00000000004030e0 <snprintf@plt>:
  4030e0:	ff 25 8a 3f 03 00    	jmpq   *0x33f8a(%rip)        # 437070 <snprintf@GLIBC_2.2.5>
  4030e6:	68 0b 00 00 00       	pushq  $0xb
  4030eb:	e9 30 ff ff ff       	jmpq   403020 <.plt>

00000000004030f0 <pipe@plt>:
  4030f0:	ff 25 82 3f 03 00    	jmpq   *0x33f82(%rip)        # 437078 <pipe@GLIBC_2.2.5>
  4030f6:	68 0c 00 00 00       	pushq  $0xc
  4030fb:	e9 20 ff ff ff       	jmpq   403020 <.plt>

0000000000403100 <pthread_attr_getstack@plt>:
  403100:	ff 25 7a 3f 03 00    	jmpq   *0x33f7a(%rip)        # 437080 <pthread_attr_getstack@GLIBC_2.2.5>
  403106:	68 0d 00 00 00       	pushq  $0xd
  40310b:	e9 10 ff ff ff       	jmpq   403020 <.plt>

0000000000403110 <sched_yield@plt>:
  403110:	ff 25 72 3f 03 00    	jmpq   *0x33f72(%rip)        # 437088 <sched_yield@GLIBC_2.2.5>
  403116:	68 0e 00 00 00       	pushq  $0xe
  40311b:	e9 00 ff ff ff       	jmpq   403020 <.plt>

0000000000403120 <pthread_attr_init@plt>:
  403120:	ff 25 6a 3f 03 00    	jmpq   *0x33f6a(%rip)        # 437090 <pthread_attr_init@GLIBC_2.2.5>
  403126:	68 0f 00 00 00       	pushq  $0xf
  40312b:	e9 f0 fe ff ff       	jmpq   403020 <.plt>

0000000000403130 <dlvsym@plt>:
  403130:	ff 25 62 3f 03 00    	jmpq   *0x33f62(%rip)        # 437098 <dlvsym@GLIBC_2.2.5>
  403136:	68 10 00 00 00       	pushq  $0x10
  40313b:	e9 e0 fe ff ff       	jmpq   403020 <.plt>

0000000000403140 <_Unwind_GetIP@plt>:
  403140:	ff 25 5a 3f 03 00    	jmpq   *0x33f5a(%rip)        # 4370a0 <_Unwind_GetIP@GCC_3.0>
  403146:	68 11 00 00 00       	pushq  $0x11
  40314b:	e9 d0 fe ff ff       	jmpq   403020 <.plt>

0000000000403150 <syslog@plt>:
  403150:	ff 25 52 3f 03 00    	jmpq   *0x33f52(%rip)        # 4370a8 <syslog@GLIBC_2.2.5>
  403156:	68 12 00 00 00       	pushq  $0x12
  40315b:	e9 c0 fe ff ff       	jmpq   403020 <.plt>

0000000000403160 <_ZN11__sanitizer17real_pthread_joinEPvPS0_@plt>:
  403160:	ff 25 4a 3f 03 00    	jmpq   *0x33f4a(%rip)        # 4370b0 <_ZN11__sanitizer17real_pthread_joinEPvPS0_>
  403166:	68 13 00 00 00       	pushq  $0x13
  40316b:	e9 b0 fe ff ff       	jmpq   403020 <.plt>

0000000000403170 <confstr@plt>:
  403170:	ff 25 42 3f 03 00    	jmpq   *0x33f42(%rip)        # 4370b8 <confstr@GLIBC_2.2.5>
  403176:	68 14 00 00 00       	pushq  $0x14
  40317b:	e9 a0 fe ff ff       	jmpq   403020 <.plt>

0000000000403180 <pthread_attr_setstacksize@plt>:
  403180:	ff 25 3a 3f 03 00    	jmpq   *0x33f3a(%rip)        # 4370c0 <pthread_attr_setstacksize@GLIBC_2.2.5>
  403186:	68 15 00 00 00       	pushq  $0x15
  40318b:	e9 90 fe ff ff       	jmpq   403020 <.plt>

0000000000403190 <setrlimit@plt>:
  403190:	ff 25 32 3f 03 00    	jmpq   *0x33f32(%rip)        # 4370c8 <setrlimit@GLIBC_2.2.5>
  403196:	68 16 00 00 00       	pushq  $0x16
  40319b:	e9 80 fe ff ff       	jmpq   403020 <.plt>

00000000004031a0 <getauxval@plt>:
  4031a0:	ff 25 2a 3f 03 00    	jmpq   *0x33f2a(%rip)        # 4370d0 <getauxval@GLIBC_2.16>
  4031a6:	68 17 00 00 00       	pushq  $0x17
  4031ab:	e9 70 fe ff ff       	jmpq   403020 <.plt>

00000000004031b0 <__sanitizer_print_memory_profile@plt>:
  4031b0:	ff 25 22 3f 03 00    	jmpq   *0x33f22(%rip)        # 4370d8 <__sanitizer_print_memory_profile>
  4031b6:	68 18 00 00 00       	pushq  $0x18
  4031bb:	e9 60 fe ff ff       	jmpq   403020 <.plt>

00000000004031c0 <madvise@plt>:
  4031c0:	ff 25 1a 3f 03 00    	jmpq   *0x33f1a(%rip)        # 4370e0 <madvise@GLIBC_2.2.5>
  4031c6:	68 19 00 00 00       	pushq  $0x19
  4031cb:	e9 50 fe ff ff       	jmpq   403020 <.plt>

00000000004031d0 <pthread_self@plt>:
  4031d0:	ff 25 12 3f 03 00    	jmpq   *0x33f12(%rip)        # 4370e8 <pthread_self@GLIBC_2.2.5>
  4031d6:	68 1a 00 00 00       	pushq  $0x1a
  4031db:	e9 40 fe ff ff       	jmpq   403020 <.plt>

00000000004031e0 <getrusage@plt>:
  4031e0:	ff 25 0a 3f 03 00    	jmpq   *0x33f0a(%rip)        # 4370f0 <getrusage@GLIBC_2.2.5>
  4031e6:	68 1b 00 00 00       	pushq  $0x1b
  4031eb:	e9 30 fe ff ff       	jmpq   403020 <.plt>

00000000004031f0 <sysconf@plt>:
  4031f0:	ff 25 02 3f 03 00    	jmpq   *0x33f02(%rip)        # 4370f8 <sysconf@GLIBC_2.2.5>
  4031f6:	68 1c 00 00 00       	pushq  $0x1c
  4031fb:	e9 20 fe ff ff       	jmpq   403020 <.plt>

0000000000403200 <pthread_attr_destroy@plt>:
  403200:	ff 25 fa 3e 03 00    	jmpq   *0x33efa(%rip)        # 437100 <pthread_attr_destroy@GLIBC_2.2.5>
  403206:	68 1d 00 00 00       	pushq  $0x1d
  40320b:	e9 10 fe ff ff       	jmpq   403020 <.plt>

0000000000403210 <__cxa_atexit@plt>:
  403210:	ff 25 f2 3e 03 00    	jmpq   *0x33ef2(%rip)        # 437108 <__cxa_atexit@GLIBC_2.2.5>
  403216:	68 1e 00 00 00       	pushq  $0x1e
  40321b:	e9 00 fe ff ff       	jmpq   403020 <.plt>

0000000000403220 <exit@plt>:
  403220:	ff 25 ea 3e 03 00    	jmpq   *0x33eea(%rip)        # 437110 <exit@GLIBC_2.2.5>
  403226:	68 1f 00 00 00       	pushq  $0x1f
  40322b:	e9 f0 fd ff ff       	jmpq   403020 <.plt>

0000000000403230 <getrlimit@plt>:
  403230:	ff 25 e2 3e 03 00    	jmpq   *0x33ee2(%rip)        # 437118 <getrlimit@GLIBC_2.2.5>
  403236:	68 20 00 00 00       	pushq  $0x20
  40323b:	e9 e0 fd ff ff       	jmpq   403020 <.plt>

0000000000403240 <sched_getaffinity@plt>:
  403240:	ff 25 da 3e 03 00    	jmpq   *0x33eda(%rip)        # 437120 <sched_getaffinity@GLIBC_2.3.4>
  403246:	68 21 00 00 00       	pushq  $0x21
  40324b:	e9 d0 fd ff ff       	jmpq   403020 <.plt>

0000000000403250 <sigaltstack@plt>:
  403250:	ff 25 d2 3e 03 00    	jmpq   *0x33ed2(%rip)        # 437128 <sigaltstack@GLIBC_2.2.5>
  403256:	68 22 00 00 00       	pushq  $0x22
  40325b:	e9 c0 fd ff ff       	jmpq   403020 <.plt>

0000000000403260 <dlsym@plt>:
  403260:	ff 25 ca 3e 03 00    	jmpq   *0x33eca(%rip)        # 437130 <dlsym@GLIBC_2.2.5>
  403266:	68 23 00 00 00       	pushq  $0x23
  40326b:	e9 b0 fd ff ff       	jmpq   403020 <.plt>

0000000000403270 <sleep@plt>:
  403270:	ff 25 c2 3e 03 00    	jmpq   *0x33ec2(%rip)        # 437138 <sleep@GLIBC_2.2.5>
  403276:	68 24 00 00 00       	pushq  $0x24
  40327b:	e9 a0 fd ff ff       	jmpq   403020 <.plt>

0000000000403280 <execv@plt>:
  403280:	ff 25 ba 3e 03 00    	jmpq   *0x33eba(%rip)        # 437140 <execv@GLIBC_2.2.5>
  403286:	68 25 00 00 00       	pushq  $0x25
  40328b:	e9 90 fd ff ff       	jmpq   403020 <.plt>

0000000000403290 <dlerror@plt>:
  403290:	ff 25 b2 3e 03 00    	jmpq   *0x33eb2(%rip)        # 437148 <dlerror@GLIBC_2.2.5>
  403296:	68 26 00 00 00       	pushq  $0x26
  40329b:	e9 80 fd ff ff       	jmpq   403020 <.plt>

00000000004032a0 <usleep@plt>:
  4032a0:	ff 25 aa 3e 03 00    	jmpq   *0x33eaa(%rip)        # 437150 <usleep@GLIBC_2.2.5>
  4032a6:	68 27 00 00 00       	pushq  $0x27
  4032ab:	e9 70 fd ff ff       	jmpq   403020 <.plt>

Disassembly of section .plt.got:

00000000004032b0 <__sanitizer_symbolize_demangle@plt>:
  4032b0:	ff 25 ea 3c 03 00    	jmpq   *0x33cea(%rip)        # 436fa0 <__sanitizer_symbolize_demangle>
  4032b6:	66 90                	xchg   %ax,%ax

00000000004032b8 <__sanitizer_symbolize_flush@plt>:
  4032b8:	ff 25 ea 3c 03 00    	jmpq   *0x33cea(%rip)        # 436fa8 <__sanitizer_symbolize_flush>
  4032be:	66 90                	xchg   %ax,%ax

00000000004032c0 <__sanitizer_symbolize_code@plt>:
  4032c0:	ff 25 02 3d 03 00    	jmpq   *0x33d02(%rip)        # 436fc8 <__sanitizer_symbolize_code>
  4032c6:	66 90                	xchg   %ax,%ax

00000000004032c8 <real_pthread_attr_getstack@plt>:
  4032c8:	ff 25 02 3d 03 00    	jmpq   *0x33d02(%rip)        # 436fd0 <real_pthread_attr_getstack>
  4032ce:	66 90                	xchg   %ax,%ax

00000000004032d0 <_ZN11__sanitizer19real_pthread_createEPvS0_PFS0_S0_ES0_@plt>:
  4032d0:	ff 25 02 3d 03 00    	jmpq   *0x33d02(%rip)        # 436fd8 <_ZN11__sanitizer19real_pthread_createEPvS0_PFS0_S0_ES0_>
  4032d6:	66 90                	xchg   %ax,%ax

00000000004032d8 <real_clock_gettime@plt>:
  4032d8:	ff 25 02 3d 03 00    	jmpq   *0x33d02(%rip)        # 436fe0 <real_clock_gettime>
  4032de:	66 90                	xchg   %ax,%ax

00000000004032e0 <__sanitizer_symbolize_data@plt>:
  4032e0:	ff 25 0a 3d 03 00    	jmpq   *0x33d0a(%rip)        # 436ff0 <__sanitizer_symbolize_data>
  4032e6:	66 90                	xchg   %ax,%ax

00000000004032e8 <__cxa_demangle@plt>:
  4032e8:	ff 25 0a 3d 03 00    	jmpq   *0x33d0a(%rip)        # 436ff8 <__cxa_demangle>
  4032ee:	66 90                	xchg   %ax,%ax

Disassembly of section .text:

00000000004032f0 <_GLOBAL__sub_I_ubsan_init_standalone.cpp>:
  4032f0:	50                   	push   %rax
  4032f1:	e8 6a b1 01 00       	callq  41e460 <_ZN7__ubsan16InitAsStandaloneEv>
  4032f6:	58                   	pop    %rax
  4032f7:	e9 44 02 02 00       	jmpq   423540 <_ZN7__ubsan23InitializeDeadlySignalsEv>
  4032fc:	0f 1f 40 00          	nopl   0x0(%rax)

0000000000403300 <_start>:
  403300:	f3 0f 1e fa          	endbr64 
  403304:	31 ed                	xor    %ebp,%ebp
  403306:	49 89 d1             	mov    %rdx,%r9
  403309:	5e                   	pop    %rsi
  40330a:	48 89 e2             	mov    %rsp,%rdx
  40330d:	48 83 e4 f0          	and    $0xfffffffffffffff0,%rsp
  403311:	50                   	push   %rax
  403312:	54                   	push   %rsp
  403313:	49 c7 c0 20 3b 42 00 	mov    $0x423b20,%r8
  40331a:	48 c7 c1 b0 3a 42 00 	mov    $0x423ab0,%rcx
  403321:	48 c7 c7 e0 36 42 00 	mov    $0x4236e0,%rdi
  403328:	ff 15 82 3c 03 00    	callq  *0x33c82(%rip)        # 436fb0 <__libc_start_main@GLIBC_2.2.5>
  40332e:	f4                   	hlt    
  40332f:	90                   	nop

0000000000403330 <_dl_relocate_static_pie>:
  403330:	f3 0f 1e fa          	endbr64 
  403334:	c3                   	retq   
  403335:	66 2e 0f 1f 84 00 00 	nopw   %cs:0x0(%rax,%rax,1)
  40333c:	00 00 00 
  40333f:	90                   	nop

0000000000403340 <deregister_tm_clones>:
  403340:	b8 e0 9b 43 00       	mov    $0x439be0,%eax
  403345:	48 3d e0 9b 43 00    	cmp    $0x439be0,%rax
  40334b:	74 13                	je     403360 <deregister_tm_clones+0x20>
  40334d:	b8 00 00 00 00       	mov    $0x0,%eax
  403352:	48 85 c0             	test   %rax,%rax
  403355:	74 09                	je     403360 <deregister_tm_clones+0x20>
  403357:	bf e0 9b 43 00       	mov    $0x439be0,%edi
  40335c:	ff e0                	jmpq   *%rax
  40335e:	66 90                	xchg   %ax,%ax
  403360:	c3                   	retq   
  403361:	66 66 2e 0f 1f 84 00 	data16 nopw %cs:0x0(%rax,%rax,1)
  403368:	00 00 00 00 
  40336c:	0f 1f 40 00          	nopl   0x0(%rax)

0000000000403370 <register_tm_clones>:
  403370:	be e0 9b 43 00       	mov    $0x439be0,%esi
  403375:	48 81 ee e0 9b 43 00 	sub    $0x439be0,%rsi
  40337c:	48 89 f0             	mov    %rsi,%rax
  40337f:	48 c1 ee 3f          	shr    $0x3f,%rsi
  403383:	48 c1 f8 03          	sar    $0x3,%rax
  403387:	48 01 c6             	add    %rax,%rsi
  40338a:	48 d1 fe             	sar    %rsi
  40338d:	74 11                	je     4033a0 <register_tm_clones+0x30>
  40338f:	b8 00 00 00 00       	mov    $0x0,%eax
  403394:	48 85 c0             	test   %rax,%rax
  403397:	74 07                	je     4033a0 <register_tm_clones+0x30>
  403399:	bf e0 9b 43 00       	mov    $0x439be0,%edi
  40339e:	ff e0                	jmpq   *%rax
  4033a0:	c3                   	retq   
  4033a1:	66 66 2e 0f 1f 84 00 	data16 nopw %cs:0x0(%rax,%rax,1)
  4033a8:	00 00 00 00 
  4033ac:	0f 1f 40 00          	nopl   0x0(%rax)

00000000004033b0 <__do_global_dtors_aux>:
  4033b0:	f3 0f 1e fa          	endbr64 
  4033b4:	80 3d 45 68 03 00 00 	cmpb   $0x0,0x36845(%rip)        # 439c00 <completed.8061>
  4033bb:	75 13                	jne    4033d0 <__do_global_dtors_aux+0x20>
  4033bd:	55                   	push   %rbp
  4033be:	48 89 e5             	mov    %rsp,%rbp
  4033c1:	e8 7a ff ff ff       	callq  403340 <deregister_tm_clones>
  4033c6:	c6 05 33 68 03 00 01 	movb   $0x1,0x36833(%rip)        # 439c00 <completed.8061>
  4033cd:	5d                   	pop    %rbp
  4033ce:	c3                   	retq   
  4033cf:	90                   	nop
  4033d0:	c3                   	retq   
  4033d1:	66 66 2e 0f 1f 84 00 	data16 nopw %cs:0x0(%rax,%rax,1)
  4033d8:	00 00 00 00 
  4033dc:	0f 1f 40 00          	nopl   0x0(%rax)

00000000004033e0 <frame_dummy>:
  4033e0:	f3 0f 1e fa          	endbr64 
  4033e4:	eb 8a                	jmp    403370 <register_tm_clones>
  4033e6:	66 90                	xchg   %ax,%ax
  4033e8:	0f 1f 84 00 00 00 00 	nopl   0x0(%rax,%rax,1)
  4033ef:	00 

00000000004033f0 <_ZN7__ubsanL19PreInitAsStandaloneEv>:
  4033f0:	50                   	push   %rax
  4033f1:	e8 6a b0 01 00       	callq  41e460 <_ZN7__ubsan16InitAsStandaloneEv>
  4033f6:	58                   	pop    %rax
  4033f7:	e9 44 01 02 00       	jmpq   423540 <_ZN7__ubsan23InitializeDeadlySignalsEv>
  4033fc:	0f 1f 40 00          	nopl   0x0(%rax)

0000000000403400 <_ZN11__sanitizer18internal_allocatorEv>:
  403400:	53                   	push   %rbx
  403401:	8a 05 79 78 0b 00    	mov    0xb7879(%rip),%al        # 4bac80 <_ZN11__sanitizerL30internal_allocator_initializedE>
  403407:	84 c0                	test   %al,%al
  403409:	74 09                	je     403414 <_ZN11__sanitizer18internal_allocatorEv+0x14>
  40340b:	48 8d 05 2e 68 03 00 	lea    0x3682e(%rip),%rax        # 439c40 <_ZN11__sanitizerL26internal_alloc_placeholderE>
  403412:	5b                   	pop    %rbx
  403413:	c3                   	retq   
  403414:	b0 01                	mov    $0x1,%al
  403416:	86 05 65 78 0b 00    	xchg   %al,0xb7865(%rip)        # 4bac81 <_ZN11__sanitizerL22internal_alloc_init_muE>
  40341c:	84 c0                	test   %al,%al
  40341e:	74 0c                	je     40342c <_ZN11__sanitizer18internal_allocatorEv+0x2c>
  403420:	48 8d 3d 5a 78 0b 00 	lea    0xb785a(%rip),%rdi        # 4bac81 <_ZN11__sanitizerL22internal_alloc_init_muE>
  403427:	e8 34 1f 00 00       	callq  405360 <_ZN11__sanitizer15StaticSpinMutex8LockSlowEv>
  40342c:	80 3d 4d 78 0b 00 00 	cmpb   $0x0,0xb784d(%rip)        # 4bac80 <_ZN11__sanitizerL30internal_allocator_initializedE>
  403433:	0f 85 97 00 00 00    	jne    4034d0 <_ZN11__sanitizer18internal_allocatorEv+0xd0>
  403439:	48 8d 1d 08 78 0b 00 	lea    0xb7808(%rip),%rbx        # 4bac48 <_ZN11__sanitizerL26internal_alloc_placeholderE+0x81008>
  403440:	ba 28 00 00 00       	mov    $0x28,%edx
  403445:	48 89 df             	mov    %rbx,%rdi
  403448:	31 f6                	xor    %esi,%esi
  40344a:	e8 31 7d 00 00       	callq  40b180 <_ZN11__sanitizer15internal_memsetEPvim>
  40344f:	48 8d 3d ea 67 03 00 	lea    0x367ea(%rip),%rdi        # 439c40 <_ZN11__sanitizerL26internal_alloc_placeholderE>
  403456:	48 89 1d eb 77 0b 00 	mov    %rbx,0xb77eb(%rip)        # 4bac48 <_ZN11__sanitizerL26internal_alloc_placeholderE+0x81008>
  40345d:	48 89 1d ec 77 0b 00 	mov    %rbx,0xb77ec(%rip)        # 4bac50 <_ZN11__sanitizerL26internal_alloc_placeholderE+0x81010>
  403464:	ba 00 00 04 00       	mov    $0x40000,%edx
  403469:	31 f6                	xor    %esi,%esi
  40346b:	e8 10 7d 00 00       	callq  40b180 <_ZN11__sanitizer15internal_memsetEPvim>
  403470:	c6 05 c9 67 07 00 00 	movb   $0x0,0x767c9(%rip)        # 479c40 <_ZN11__sanitizerL26internal_alloc_placeholderE+0x40000>
  403477:	48 8d 3d 02 68 07 00 	lea    0x76802(%rip),%rdi        # 479c80 <_ZN11__sanitizerL26internal_alloc_placeholderE+0x40040>
  40347e:	ba 80 0d 00 00       	mov    $0xd80,%edx
  403483:	31 f6                	xor    %esi,%esi
  403485:	e8 f6 7c 00 00       	callq  40b180 <_ZN11__sanitizer15internal_memsetEPvim>
  40348a:	48 8d 3d 6f 75 07 00 	lea    0x7756f(%rip),%rdi        # 47aa00 <_ZN11__sanitizerL26internal_alloc_placeholderE+0x40dc0>
  403491:	ba 48 02 04 00       	mov    $0x40248,%edx
  403496:	31 f6                	xor    %esi,%esi
  403498:	e8 e3 7c 00 00       	callq  40b180 <_ZN11__sanitizer15internal_memsetEPvim>
  40349d:	48 8d 1d 1c 50 0c 00 	lea    0xc501c(%rip),%rbx        # 4c84c0 <_ZN11__sanitizer14PageSizeCachedE>
  4034a4:	48 8b 03             	mov    (%rbx),%rax
  4034a7:	48 85 c0             	test   %rax,%rax
  4034aa:	75 08                	jne    4034b4 <_ZN11__sanitizer18internal_allocatorEv+0xb4>
  4034ac:	e8 df ab 00 00       	callq  40e090 <_ZN11__sanitizer11GetPageSizeEv>
  4034b1:	48 89 03             	mov    %rax,(%rbx)
  4034b4:	48 89 05 45 75 07 00 	mov    %rax,0x77545(%rip)        # 47aa00 <_ZN11__sanitizerL26internal_alloc_placeholderE+0x40dc0>
  4034bb:	48 8d 05 4e 75 07 00 	lea    0x7754e(%rip),%rax        # 47aa10 <_ZN11__sanitizerL26internal_alloc_placeholderE+0x40dd0>
  4034c2:	48 89 05 3f 75 07 00 	mov    %rax,0x7753f(%rip)        # 47aa08 <_ZN11__sanitizerL26internal_alloc_placeholderE+0x40dc8>
  4034c9:	c6 05 b0 77 0b 00 01 	movb   $0x1,0xb77b0(%rip)        # 4bac80 <_ZN11__sanitizerL30internal_allocator_initializedE>
  4034d0:	c6 05 aa 77 0b 00 00 	movb   $0x0,0xb77aa(%rip)        # 4bac81 <_ZN11__sanitizerL22internal_alloc_init_muE>
  4034d7:	48 8d 05 62 67 03 00 	lea    0x36762(%rip),%rax        # 439c40 <_ZN11__sanitizerL26internal_alloc_placeholderE>
  4034de:	5b                   	pop    %rbx
  4034df:	c3                   	retq   

00000000004034e0 <_ZN11__sanitizer13InternalAllocEmPNS_30SizeClassAllocator32LocalCacheINS_20SizeClassAllocator32INS_4AP32EEEEEm>:
  4034e0:	41 57                	push   %r15
  4034e2:	41 56                	push   %r14
  4034e4:	53                   	push   %rbx
  4034e5:	48 83 ff f7          	cmp    $0xfffffffffffffff7,%rdi
  4034e9:	76 08                	jbe    4034f3 <_ZN11__sanitizer13InternalAllocEmPNS_30SizeClassAllocator32LocalCacheINS_20SizeClassAllocator32INS_4AP32EEEEEm+0x13>
  4034eb:	31 c0                	xor    %eax,%eax
  4034ed:	5b                   	pop    %rbx
  4034ee:	41 5e                	pop    %r14
  4034f0:	41 5f                	pop    %r15
  4034f2:	c3                   	retq   
  4034f3:	48 89 f3             	mov    %rsi,%rbx
  4034f6:	49 89 ff             	mov    %rdi,%r15
  4034f9:	49 83 c7 08          	add    $0x8,%r15
  4034fd:	48 85 d2             	test   %rdx,%rdx
  403500:	41 be 08 00 00 00    	mov    $0x8,%r14d
  403506:	4c 0f 45 f2          	cmovne %rdx,%r14
  40350a:	48 85 f6             	test   %rsi,%rsi
  40350d:	74 36                	je     403545 <_ZN11__sanitizer13InternalAllocEmPNS_30SizeClassAllocator32LocalCacheINS_20SizeClassAllocator32INS_4AP32EEEEEm+0x65>
  40350f:	e8 ec fe ff ff       	callq  403400 <_ZN11__sanitizer18internal_allocatorEv>
  403514:	48 8d 3d 25 67 03 00 	lea    0x36725(%rip),%rdi        # 439c40 <_ZN11__sanitizerL26internal_alloc_placeholderE>
  40351b:	48 89 de             	mov    %rbx,%rsi
  40351e:	4c 89 fa             	mov    %r15,%rdx
  403521:	4c 89 f1             	mov    %r14,%rcx
  403524:	e8 57 05 00 00       	callq  403a80 <_ZN11__sanitizer17CombinedAllocatorINS_20SizeClassAllocator32INS_4AP32EEENS_32LargeMmapAllocatorPtrArrayStaticEE8AllocateEPNS_30SizeClassAllocator32LocalCacheIS3_EEmm>
  403529:	48 85 c0             	test   %rax,%rax
  40352c:	74 59                	je     403587 <_ZN11__sanitizer13InternalAllocEmPNS_30SizeClassAllocator32LocalCacheINS_20SizeClassAllocator32INS_4AP32EEEEEm+0xa7>
  40352e:	48 b9 41 c0 eb bc 3a 	movabs $0x6a6cb03abcebc041,%rcx
  403535:	b0 6c 6a 
  403538:	48 89 08             	mov    %rcx,(%rax)
  40353b:	48 83 c0 08          	add    $0x8,%rax
  40353f:	5b                   	pop    %rbx
  403540:	41 5e                	pop    %r14
  403542:	41 5f                	pop    %r15
  403544:	c3                   	retq   
  403545:	b0 01                	mov    $0x1,%al
  403547:	86 05 45 77 0b 00    	xchg   %al,0xb7745(%rip)        # 4bac92 <_ZN11__sanitizerL27internal_allocator_cache_muE>
  40354d:	84 c0                	test   %al,%al
  40354f:	74 0c                	je     40355d <_ZN11__sanitizer13InternalAllocEmPNS_30SizeClassAllocator32LocalCacheINS_20SizeClassAllocator32INS_4AP32EEEEEm+0x7d>
  403551:	48 8d 3d 3a 77 0b 00 	lea    0xb773a(%rip),%rdi        # 4bac92 <_ZN11__sanitizerL27internal_allocator_cache_muE>
  403558:	e8 03 1e 00 00       	callq  405360 <_ZN11__sanitizer15StaticSpinMutex8LockSlowEv>
  40355d:	e8 9e fe ff ff       	callq  403400 <_ZN11__sanitizer18internal_allocatorEv>
  403562:	48 8d 3d d7 66 03 00 	lea    0x366d7(%rip),%rdi        # 439c40 <_ZN11__sanitizerL26internal_alloc_placeholderE>
  403569:	48 8d 35 28 77 0b 00 	lea    0xb7728(%rip),%rsi        # 4bac98 <_ZN11__sanitizerL24internal_allocator_cacheE>
  403570:	4c 89 fa             	mov    %r15,%rdx
  403573:	4c 89 f1             	mov    %r14,%rcx
  403576:	e8 05 05 00 00       	callq  403a80 <_ZN11__sanitizer17CombinedAllocatorINS_20SizeClassAllocator32INS_4AP32EEENS_32LargeMmapAllocatorPtrArrayStaticEE8AllocateEPNS_30SizeClassAllocator32LocalCacheIS3_EEmm>
  40357b:	c6 05 10 77 0b 00 00 	movb   $0x0,0xb7710(%rip)        # 4bac92 <_ZN11__sanitizerL27internal_allocator_cache_muE>
  403582:	48 85 c0             	test   %rax,%rax
  403585:	75 a7                	jne    40352e <_ZN11__sanitizer13InternalAllocEmPNS_30SizeClassAllocator32LocalCacheINS_20SizeClassAllocator32INS_4AP32EEEEEm+0x4e>
  403587:	4c 89 ff             	mov    %r15,%rdi
  40358a:	e8 01 00 00 00       	callq  403590 <_ZN11__sanitizerL34ReportInternalAllocatorOutOfMemoryEm>
  40358f:	90                   	nop

0000000000403590 <_ZN11__sanitizerL34ReportInternalAllocatorOutOfMemoryEm>:
  403590:	50                   	push   %rax
  403591:	48 89 fa             	mov    %rdi,%rdx
  403594:	c6 05 f5 76 0b 00 01 	movb   $0x1,0xb76f5(%rip)        # 4bac90 <_ZN11__sanitizerL23allocator_out_of_memoryE>
  40359b:	48 8d 05 e6 3b 03 00 	lea    0x33be6(%rip),%rax        # 437188 <_ZN11__sanitizer17SanitizerToolNameE>
  4035a2:	48 8b 30             	mov    (%rax),%rsi
  4035a5:	48 8d 3d 02 13 02 00 	lea    0x21302(%rip),%rdi        # 4248ae <_IO_stdin_used+0x8ae>
  4035ac:	31 c0                	xor    %eax,%eax
  4035ae:	e8 ad ca 00 00       	callq  410060 <_ZN11__sanitizer6ReportEPKcz>
  4035b3:	e8 c8 01 01 00       	callq  413780 <_ZN11__sanitizer3DieEv>
  4035b8:	0f 1f 84 00 00 00 00 	nopl   0x0(%rax,%rax,1)
  4035bf:	00 

00000000004035c0 <_ZN11__sanitizer15InternalReallocEPvmPNS_30SizeClassAllocator32LocalCacheINS_20SizeClassAllocator32INS_4AP32EEEEE>:
  4035c0:	41 57                	push   %r15
  4035c2:	41 56                	push   %r14
  4035c4:	53                   	push   %rbx
  4035c5:	49 89 d7             	mov    %rdx,%r15
  4035c8:	49 89 f6             	mov    %rsi,%r14
  4035cb:	48 85 ff             	test   %rdi,%rdi
  4035ce:	74 0e                	je     4035de <_ZN11__sanitizer15InternalReallocEPvmPNS_30SizeClassAllocator32LocalCacheINS_20SizeClassAllocator32INS_4AP32EEEEE+0x1e>
  4035d0:	49 83 fe f7          	cmp    $0xfffffffffffffff7,%r14
  4035d4:	76 1a                	jbe    4035f0 <_ZN11__sanitizer15InternalReallocEPvmPNS_30SizeClassAllocator32LocalCacheINS_20SizeClassAllocator32INS_4AP32EEEEE+0x30>
  4035d6:	31 c0                	xor    %eax,%eax
  4035d8:	5b                   	pop    %rbx
  4035d9:	41 5e                	pop    %r14
  4035db:	41 5f                	pop    %r15
  4035dd:	c3                   	retq   
  4035de:	4c 89 f7             	mov    %r14,%rdi
  4035e1:	4c 89 fe             	mov    %r15,%rsi
  4035e4:	31 d2                	xor    %edx,%edx
  4035e6:	5b                   	pop    %rbx
  4035e7:	41 5e                	pop    %r14
  4035e9:	41 5f                	pop    %r15
  4035eb:	e9 f0 fe ff ff       	jmpq   4034e0 <_ZN11__sanitizer13InternalAllocEmPNS_30SizeClassAllocator32LocalCacheINS_20SizeClassAllocator32INS_4AP32EEEEEm>
  4035f0:	48 89 fb             	mov    %rdi,%rbx
  4035f3:	48 b9 41 c0 eb bc 3a 	movabs $0x6a6cb03abcebc041,%rcx
  4035fa:	b0 6c 6a 
  4035fd:	4c 8b 47 f8          	mov    -0x8(%rdi),%r8
  403601:	49 39 c8             	cmp    %rcx,%r8
  403604:	0f 85 8c 00 00 00    	jne    403696 <_ZN11__sanitizer15InternalReallocEPvmPNS_30SizeClassAllocator32LocalCacheINS_20SizeClassAllocator32INS_4AP32EEEEE+0xd6>
  40360a:	49 83 c6 08          	add    $0x8,%r14
  40360e:	48 83 c3 f8          	add    $0xfffffffffffffff8,%rbx
  403612:	4d 85 ff             	test   %r15,%r15
  403615:	74 2f                	je     403646 <_ZN11__sanitizer15InternalReallocEPvmPNS_30SizeClassAllocator32LocalCacheINS_20SizeClassAllocator32INS_4AP32EEEEE+0x86>
  403617:	e8 e4 fd ff ff       	callq  403400 <_ZN11__sanitizer18internal_allocatorEv>
  40361c:	48 8d 3d 1d 66 03 00 	lea    0x3661d(%rip),%rdi        # 439c40 <_ZN11__sanitizerL26internal_alloc_placeholderE>
  403623:	41 b8 08 00 00 00    	mov    $0x8,%r8d
  403629:	4c 89 fe             	mov    %r15,%rsi
  40362c:	48 89 da             	mov    %rbx,%rdx
  40362f:	4c 89 f1             	mov    %r14,%rcx
  403632:	e8 b9 17 00 00       	callq  404df0 <_ZN11__sanitizer17CombinedAllocatorINS_20SizeClassAllocator32INS_4AP32EEENS_32LargeMmapAllocatorPtrArrayStaticEE10ReallocateEPNS_30SizeClassAllocator32LocalCacheIS3_EEPvmm>
  403637:	48 85 c0             	test   %rax,%rax
  40363a:	74 52                	je     40368e <_ZN11__sanitizer15InternalReallocEPvmPNS_30SizeClassAllocator32LocalCacheINS_20SizeClassAllocator32INS_4AP32EEEEE+0xce>
  40363c:	48 83 c0 08          	add    $0x8,%rax
  403640:	5b                   	pop    %rbx
  403641:	41 5e                	pop    %r14
  403643:	41 5f                	pop    %r15
  403645:	c3                   	retq   
  403646:	b0 01                	mov    $0x1,%al
  403648:	86 05 44 76 0b 00    	xchg   %al,0xb7644(%rip)        # 4bac92 <_ZN11__sanitizerL27internal_allocator_cache_muE>
  40364e:	84 c0                	test   %al,%al
  403650:	74 0c                	je     40365e <_ZN11__sanitizer15InternalReallocEPvmPNS_30SizeClassAllocator32LocalCacheINS_20SizeClassAllocator32INS_4AP32EEEEE+0x9e>
  403652:	48 8d 3d 39 76 0b 00 	lea    0xb7639(%rip),%rdi        # 4bac92 <_ZN11__sanitizerL27internal_allocator_cache_muE>
  403659:	e8 02 1d 00 00       	callq  405360 <_ZN11__sanitizer15StaticSpinMutex8LockSlowEv>
  40365e:	e8 9d fd ff ff       	callq  403400 <_ZN11__sanitizer18internal_allocatorEv>
  403663:	48 8d 3d d6 65 03 00 	lea    0x365d6(%rip),%rdi        # 439c40 <_ZN11__sanitizerL26internal_alloc_placeholderE>
  40366a:	48 8d 35 27 76 0b 00 	lea    0xb7627(%rip),%rsi        # 4bac98 <_ZN11__sanitizerL24internal_allocator_cacheE>
  403671:	41 b8 08 00 00 00    	mov    $0x8,%r8d
  403677:	48 89 da             	mov    %rbx,%rdx
  40367a:	4c 89 f1             	mov    %r14,%rcx
  40367d:	e8 6e 17 00 00       	callq  404df0 <_ZN11__sanitizer17CombinedAllocatorINS_20SizeClassAllocator32INS_4AP32EEENS_32LargeMmapAllocatorPtrArrayStaticEE10ReallocateEPNS_30SizeClassAllocator32LocalCacheIS3_EEPvmm>
  403682:	c6 05 09 76 0b 00 00 	movb   $0x0,0xb7609(%rip)        # 4bac92 <_ZN11__sanitizerL27internal_allocator_cache_muE>
  403689:	48 85 c0             	test   %rax,%rax
  40368c:	75 ae                	jne    40363c <_ZN11__sanitizer15InternalReallocEPvmPNS_30SizeClassAllocator32LocalCacheINS_20SizeClassAllocator32INS_4AP32EEEEE+0x7c>
  40368e:	4c 89 f7             	mov    %r14,%rdi
  403691:	e8 fa fe ff ff       	callq  403590 <_ZN11__sanitizerL34ReportInternalAllocatorOutOfMemoryEm>
  403696:	48 8d 3d 8d 09 02 00 	lea    0x2098d(%rip),%rdi        # 42402a <_IO_stdin_used+0x2a>
  40369d:	48 8d 15 f8 09 02 00 	lea    0x209f8(%rip),%rdx        # 42409c <_IO_stdin_used+0x9c>
  4036a4:	be a6 00 00 00       	mov    $0xa6,%esi
  4036a9:	e8 b2 01 01 00       	callq  413860 <_ZN11__sanitizer11CheckFailedEPKciS1_yy>
  4036ae:	66 90                	xchg   %ax,%ax

00000000004036b0 <_ZN11__sanitizer20InternalReallocArrayEPvmmPNS_30SizeClassAllocator32LocalCacheINS_20SizeClassAllocator32INS_4AP32EEEEE>:
  4036b0:	49 89 d1             	mov    %rdx,%r9
  4036b3:	49 89 f0             	mov    %rsi,%r8
  4036b6:	48 89 f0             	mov    %rsi,%rax
  4036b9:	48 f7 e2             	mul    %rdx
  4036bc:	70 0f                	jo     4036cd <_ZN11__sanitizer20InternalReallocArrayEPvmmPNS_30SizeClassAllocator32LocalCacheINS_20SizeClassAllocator32INS_4AP32EEEEE+0x1d>
  4036be:	4d 0f af c8          	imul   %r8,%r9
  4036c2:	4c 89 ce             	mov    %r9,%rsi
  4036c5:	48 89 ca             	mov    %rcx,%rdx
  4036c8:	e9 f3 fe ff ff       	jmpq   4035c0 <_ZN11__sanitizer15InternalReallocEPvmPNS_30SizeClassAllocator32LocalCacheINS_20SizeClassAllocator32INS_4AP32EEEEE>
  4036cd:	50                   	push   %rax
  4036ce:	48 8d 05 b3 3a 03 00 	lea    0x33ab3(%rip),%rax        # 437188 <_ZN11__sanitizer17SanitizerToolNameE>
  4036d5:	48 8b 30             	mov    (%rax),%rsi
  4036d8:	48 8d 3d e4 09 02 00 	lea    0x209e4(%rip),%rdi        # 4240c3 <_IO_stdin_used+0xc3>
  4036df:	4c 89 c2             	mov    %r8,%rdx
  4036e2:	4c 89 c9             	mov    %r9,%rcx
  4036e5:	31 c0                	xor    %eax,%eax
  4036e7:	e8 74 c9 00 00       	callq  410060 <_ZN11__sanitizer6ReportEPKcz>
  4036ec:	e8 8f 00 01 00       	callq  413780 <_ZN11__sanitizer3DieEv>
  4036f1:	66 2e 0f 1f 84 00 00 	nopw   %cs:0x0(%rax,%rax,1)
  4036f8:	00 00 00 
  4036fb:	0f 1f 44 00 00       	nopl   0x0(%rax,%rax,1)

0000000000403700 <_ZN11__sanitizer14InternalCallocEmmPNS_30SizeClassAllocator32LocalCacheINS_20SizeClassAllocator32INS_4AP32EEEEE>:
  403700:	41 56                	push   %r14
  403702:	53                   	push   %rbx
  403703:	50                   	push   %rax
  403704:	48 89 d3             	mov    %rdx,%rbx
  403707:	49 89 f6             	mov    %rsi,%r14
  40370a:	48 89 f9             	mov    %rdi,%rcx
  40370d:	48 89 f8             	mov    %rdi,%rax
  403710:	48 f7 e6             	mul    %rsi
  403713:	70 31                	jo     403746 <_ZN11__sanitizer14InternalCallocEmmPNS_30SizeClassAllocator32LocalCacheINS_20SizeClassAllocator32INS_4AP32EEEEE+0x46>
  403715:	4c 0f af f1          	imul   %rcx,%r14
  403719:	4c 89 f7             	mov    %r14,%rdi
  40371c:	48 89 de             	mov    %rbx,%rsi
  40371f:	31 d2                	xor    %edx,%edx
  403721:	e8 ba fd ff ff       	callq  4034e0 <_ZN11__sanitizer13InternalAllocEmPNS_30SizeClassAllocator32LocalCacheINS_20SizeClassAllocator32INS_4AP32EEEEEm>
  403726:	48 89 c3             	mov    %rax,%rbx
  403729:	48 85 c0             	test   %rax,%rax
  40372c:	74 0d                	je     40373b <_ZN11__sanitizer14InternalCallocEmmPNS_30SizeClassAllocator32LocalCacheINS_20SizeClassAllocator32INS_4AP32EEEEE+0x3b>
  40372e:	48 89 df             	mov    %rbx,%rdi
  403731:	31 f6                	xor    %esi,%esi
  403733:	4c 89 f2             	mov    %r14,%rdx
  403736:	e8 45 7a 00 00       	callq  40b180 <_ZN11__sanitizer15internal_memsetEPvim>
  40373b:	48 89 d8             	mov    %rbx,%rax
  40373e:	48 83 c4 08          	add    $0x8,%rsp
  403742:	5b                   	pop    %rbx
  403743:	41 5e                	pop    %r14
  403745:	c3                   	retq   
  403746:	48 8d 05 3b 3a 03 00 	lea    0x33a3b(%rip),%rax        # 437188 <_ZN11__sanitizer17SanitizerToolNameE>
  40374d:	48 8b 30             	mov    (%rax),%rsi
  403750:	48 8d 3d d8 09 02 00 	lea    0x209d8(%rip),%rdi        # 42412f <_IO_stdin_used+0x12f>
  403757:	48 89 ca             	mov    %rcx,%rdx
  40375a:	4c 89 f1             	mov    %r14,%rcx
  40375d:	31 c0                	xor    %eax,%eax
  40375f:	e8 fc c8 00 00       	callq  410060 <_ZN11__sanitizer6ReportEPKcz>
  403764:	e8 17 00 01 00       	callq  413780 <_ZN11__sanitizer3DieEv>
  403769:	0f 1f 80 00 00 00 00 	nopl   0x0(%rax)

0000000000403770 <_ZN11__sanitizer12InternalFreeEPvPNS_30SizeClassAllocator32LocalCacheINS_20SizeClassAllocator32INS_4AP32EEEEE>:
  403770:	41 57                	push   %r15
  403772:	41 56                	push   %r14
  403774:	53                   	push   %rbx
  403775:	48 85 ff             	test   %rdi,%rdi
  403778:	0f 84 04 01 00 00    	je     403882 <_ZN11__sanitizer12InternalFreeEPvPNS_30SizeClassAllocator32LocalCacheINS_20SizeClassAllocator32INS_4AP32EEEEE+0x112>
  40377e:	48 89 fb             	mov    %rdi,%rbx
  403781:	48 b9 41 c0 eb bc 3a 	movabs $0x6a6cb03abcebc041,%rcx
  403788:	b0 6c 6a 
  40378b:	4c 8b 47 f8          	mov    -0x8(%rdi),%r8
  40378f:	49 39 c8             	cmp    %rcx,%r8
  403792:	0f 85 23 01 00 00    	jne    4038bb <_ZN11__sanitizer12InternalFreeEPvPNS_30SizeClassAllocator32LocalCacheINS_20SizeClassAllocator32INS_4AP32EEEEE+0x14b>
  403798:	49 89 f6             	mov    %rsi,%r14
  40379b:	48 83 c3 f8          	add    $0xfffffffffffffff8,%rbx
  40379f:	49 bf ff ff ff ff ff 	movabs $0x7fffffffffff,%r15
  4037a6:	7f 00 00 
  4037a9:	48 c7 03 00 00 00 00 	movq   $0x0,(%rbx)
  4037b0:	48 85 f6             	test   %rsi,%rsi
  4037b3:	74 5d                	je     403812 <_ZN11__sanitizer12InternalFreeEPvPNS_30SizeClassAllocator32LocalCacheINS_20SizeClassAllocator32INS_4AP32EEEEE+0xa2>
  4037b5:	e8 46 fc ff ff       	callq  403400 <_ZN11__sanitizer18internal_allocatorEv>
  4037ba:	4c 39 fb             	cmp    %r15,%rbx
  4037bd:	77 38                	ja     4037f7 <_ZN11__sanitizer12InternalFreeEPvPNS_30SizeClassAllocator32LocalCacheINS_20SizeClassAllocator32INS_4AP32EEEEE+0x87>
  4037bf:	48 89 d8             	mov    %rbx,%rax
  4037c2:	48 c1 e8 20          	shr    $0x20,%rax
  4037c6:	48 8d 0d 73 64 03 00 	lea    0x36473(%rip),%rcx        # 439c40 <_ZN11__sanitizerL26internal_alloc_placeholderE>
  4037cd:	48 8b 34 c1          	mov    (%rcx,%rax,8),%rsi
  4037d1:	48 85 f6             	test   %rsi,%rsi
  4037d4:	74 21                	je     4037f7 <_ZN11__sanitizer12InternalFreeEPvPNS_30SizeClassAllocator32LocalCacheINS_20SizeClassAllocator32INS_4AP32EEEEE+0x87>
  4037d6:	89 da                	mov    %ebx,%edx
  4037d8:	c1 ea 14             	shr    $0x14,%edx
  4037db:	80 3c 16 00          	cmpb   $0x0,(%rsi,%rdx,1)
  4037df:	74 16                	je     4037f7 <_ZN11__sanitizer12InternalFreeEPvPNS_30SizeClassAllocator32LocalCacheINS_20SizeClassAllocator32INS_4AP32EEEEE+0x87>
  4037e1:	48 8b 04 c1          	mov    (%rcx,%rax,8),%rax
  4037e5:	48 85 c0             	test   %rax,%rax
  4037e8:	0f 84 9a 00 00 00    	je     403888 <_ZN11__sanitizer12InternalFreeEPvPNS_30SizeClassAllocator32LocalCacheINS_20SizeClassAllocator32INS_4AP32EEEEE+0x118>
  4037ee:	0f b6 14 10          	movzbl (%rax,%rdx,1),%edx
  4037f2:	e9 93 00 00 00       	jmpq   40388a <_ZN11__sanitizer12InternalFreeEPvPNS_30SizeClassAllocator32LocalCacheINS_20SizeClassAllocator32INS_4AP32EEEEE+0x11a>
  4037f7:	48 8d 3d 02 72 07 00 	lea    0x77202(%rip),%rdi        # 47aa00 <_ZN11__sanitizerL26internal_alloc_placeholderE+0x40dc0>
  4037fe:	48 8d 35 43 74 0b 00 	lea    0xb7443(%rip),%rsi        # 4bac48 <_ZN11__sanitizerL26internal_alloc_placeholderE+0x81008>
  403805:	48 89 da             	mov    %rbx,%rdx
  403808:	5b                   	pop    %rbx
  403809:	41 5e                	pop    %r14
  40380b:	41 5f                	pop    %r15
  40380d:	e9 ae 18 00 00       	jmpq   4050c0 <_ZN11__sanitizer18LargeMmapAllocatorINS_20NoOpMapUnmapCallbackENS_32LargeMmapAllocatorPtrArrayStaticENS_21LocalAddressSpaceViewEE10DeallocateEPNS_14AllocatorStatsEPv>
  403812:	b0 01                	mov    $0x1,%al
  403814:	86 05 78 74 0b 00    	xchg   %al,0xb7478(%rip)        # 4bac92 <_ZN11__sanitizerL27internal_allocator_cache_muE>
  40381a:	84 c0                	test   %al,%al
  40381c:	74 0c                	je     40382a <_ZN11__sanitizer12InternalFreeEPvPNS_30SizeClassAllocator32LocalCacheINS_20SizeClassAllocator32INS_4AP32EEEEE+0xba>
  40381e:	48 8d 3d 6d 74 0b 00 	lea    0xb746d(%rip),%rdi        # 4bac92 <_ZN11__sanitizerL27internal_allocator_cache_muE>
  403825:	e8 36 1b 00 00       	callq  405360 <_ZN11__sanitizer15StaticSpinMutex8LockSlowEv>
  40382a:	e8 d1 fb ff ff       	callq  403400 <_ZN11__sanitizer18internal_allocatorEv>
  40382f:	4c 39 fb             	cmp    %r15,%rbx
  403832:	77 31                	ja     403865 <_ZN11__sanitizer12InternalFreeEPvPNS_30SizeClassAllocator32LocalCacheINS_20SizeClassAllocator32INS_4AP32EEEEE+0xf5>
  403834:	48 89 d8             	mov    %rbx,%rax
  403837:	48 c1 e8 20          	shr    $0x20,%rax
  40383b:	48 8d 0d fe 63 03 00 	lea    0x363fe(%rip),%rcx        # 439c40 <_ZN11__sanitizerL26internal_alloc_placeholderE>
  403842:	48 8b 34 c1          	mov    (%rcx,%rax,8),%rsi
  403846:	48 85 f6             	test   %rsi,%rsi
  403849:	74 1a                	je     403865 <_ZN11__sanitizer12InternalFreeEPvPNS_30SizeClassAllocator32LocalCacheINS_20SizeClassAllocator32INS_4AP32EEEEE+0xf5>
  40384b:	89 da                	mov    %ebx,%edx
  40384d:	c1 ea 14             	shr    $0x14,%edx
  403850:	80 3c 16 00          	cmpb   $0x0,(%rsi,%rdx,1)
  403854:	74 0f                	je     403865 <_ZN11__sanitizer12InternalFreeEPvPNS_30SizeClassAllocator32LocalCacheINS_20SizeClassAllocator32INS_4AP32EEEEE+0xf5>
  403856:	48 8b 04 c1          	mov    (%rcx,%rax,8),%rax
  40385a:	48 85 c0             	test   %rax,%rax
  40385d:	74 42                	je     4038a1 <_ZN11__sanitizer12InternalFreeEPvPNS_30SizeClassAllocator32LocalCacheINS_20SizeClassAllocator32INS_4AP32EEEEE+0x131>
  40385f:	0f b6 14 10          	movzbl (%rax,%rdx,1),%edx
  403863:	eb 3e                	jmp    4038a3 <_ZN11__sanitizer12InternalFreeEPvPNS_30SizeClassAllocator32LocalCacheINS_20SizeClassAllocator32INS_4AP32EEEEE+0x133>
  403865:	48 8d 3d 94 71 07 00 	lea    0x77194(%rip),%rdi        # 47aa00 <_ZN11__sanitizerL26internal_alloc_placeholderE+0x40dc0>
  40386c:	48 8d 35 d5 73 0b 00 	lea    0xb73d5(%rip),%rsi        # 4bac48 <_ZN11__sanitizerL26internal_alloc_placeholderE+0x81008>
  403873:	48 89 da             	mov    %rbx,%rdx
  403876:	e8 45 18 00 00       	callq  4050c0 <_ZN11__sanitizer18LargeMmapAllocatorINS_20NoOpMapUnmapCallbackENS_32LargeMmapAllocatorPtrArrayStaticENS_21LocalAddressSpaceViewEE10DeallocateEPNS_14AllocatorStatsEPv>
  40387b:	c6 05 10 74 0b 00 00 	movb   $0x0,0xb7410(%rip)        # 4bac92 <_ZN11__sanitizerL27internal_allocator_cache_muE>
  403882:	5b                   	pop    %rbx
  403883:	41 5e                	pop    %r14
  403885:	41 5f                	pop    %r15
  403887:	c3                   	retq   
  403888:	31 d2                	xor    %edx,%edx
  40388a:	48 8d 35 af 63 03 00 	lea    0x363af(%rip),%rsi        # 439c40 <_ZN11__sanitizerL26internal_alloc_placeholderE>
  403891:	4c 89 f7             	mov    %r14,%rdi
  403894:	48 89 d9             	mov    %rbx,%rcx
  403897:	5b                   	pop    %rbx
  403898:	41 5e                	pop    %r14
  40389a:	41 5f                	pop    %r15
  40389c:	e9 8f 0f 00 00       	jmpq   404830 <_ZN11__sanitizer30SizeClassAllocator32LocalCacheINS_20SizeClassAllocator32INS_4AP32EEEE10DeallocateEPS3_mPv>
  4038a1:	31 d2                	xor    %edx,%edx
  4038a3:	48 8d 3d ee 73 0b 00 	lea    0xb73ee(%rip),%rdi        # 4bac98 <_ZN11__sanitizerL24internal_allocator_cacheE>
  4038aa:	48 8d 35 8f 63 03 00 	lea    0x3638f(%rip),%rsi        # 439c40 <_ZN11__sanitizerL26internal_alloc_placeholderE>
  4038b1:	48 89 d9             	mov    %rbx,%rcx
  4038b4:	e8 77 0f 00 00       	callq  404830 <_ZN11__sanitizer30SizeClassAllocator32LocalCacheINS_20SizeClassAllocator32INS_4AP32EEEE10DeallocateEPS3_mPv>
  4038b9:	eb c0                	jmp    40387b <_ZN11__sanitizer12InternalFreeEPvPNS_30SizeClassAllocator32LocalCacheINS_20SizeClassAllocator32INS_4AP32EEEEE+0x10b>
  4038bb:	48 8d 3d 68 07 02 00 	lea    0x20768(%rip),%rdi        # 42402a <_IO_stdin_used+0x2a>
  4038c2:	48 8d 15 d3 07 02 00 	lea    0x207d3(%rip),%rdx        # 42409c <_IO_stdin_used+0x9c>
  4038c9:	be ca 00 00 00       	mov    $0xca,%esi
  4038ce:	e8 8d ff 00 00       	callq  413860 <_ZN11__sanitizer11CheckFailedEPKciS1_yy>
  4038d3:	66 2e 0f 1f 84 00 00 	nopw   %cs:0x0(%rax,%rax,1)
  4038da:	00 00 00 
  4038dd:	0f 1f 00             	nopl   (%rax)

00000000004038e0 <_ZN11__sanitizer17LowLevelAllocator8AllocateEm>:
  4038e0:	41 57                	push   %r15
  4038e2:	41 56                	push   %r14
  4038e4:	41 54                	push   %r12
  4038e6:	53                   	push   %rbx
  4038e7:	50                   	push   %rax
  4038e8:	48 8b 1d 91 38 03 00 	mov    0x33891(%rip),%rbx        # 437180 <_ZN11__sanitizerL29low_level_alloc_min_alignmentE>
  4038ef:	48 8d 43 ff          	lea    -0x1(%rbx),%rax
  4038f3:	48 85 c3             	test   %rax,%rbx
  4038f6:	0f 85 aa 00 00 00    	jne    4039a6 <_ZN11__sanitizer17LowLevelAllocator8AllocateEm+0xc6>
  4038fc:	49 89 fe             	mov    %rdi,%r14
  4038ff:	48 8d 04 1e          	lea    (%rsi,%rbx,1),%rax
  403903:	48 83 c0 ff          	add    $0xffffffffffffffff,%rax
  403907:	48 f7 db             	neg    %rbx
  40390a:	48 21 c3             	and    %rax,%rbx
  40390d:	48 8b 0f             	mov    (%rdi),%rcx
  403910:	48 8b 47 08          	mov    0x8(%rdi),%rax
  403914:	48 89 ca             	mov    %rcx,%rdx
  403917:	48 29 c2             	sub    %rax,%rdx
  40391a:	48 39 da             	cmp    %rbx,%rdx
  40391d:	7d 6c                	jge    40398b <_ZN11__sanitizer17LowLevelAllocator8AllocateEm+0xab>
  40391f:	4c 8d 25 9a 4b 0c 00 	lea    0xc4b9a(%rip),%r12        # 4c84c0 <_ZN11__sanitizer14PageSizeCachedE>
  403926:	4d 8b 3c 24          	mov    (%r12),%r15
  40392a:	4d 85 ff             	test   %r15,%r15
  40392d:	75 0c                	jne    40393b <_ZN11__sanitizer17LowLevelAllocator8AllocateEm+0x5b>
  40392f:	e8 5c a7 00 00       	callq  40e090 <_ZN11__sanitizer11GetPageSizeEv>
  403934:	49 89 c7             	mov    %rax,%r15
  403937:	49 89 04 24          	mov    %rax,(%r12)
  40393b:	49 8d 47 ff          	lea    -0x1(%r15),%rax
  40393f:	49 85 c7             	test   %rax,%r15
  403942:	75 62                	jne    4039a6 <_ZN11__sanitizer17LowLevelAllocator8AllocateEm+0xc6>
  403944:	4a 8d 04 3b          	lea    (%rbx,%r15,1),%rax
  403948:	48 83 c0 ff          	add    $0xffffffffffffffff,%rax
  40394c:	49 f7 df             	neg    %r15
  40394f:	49 21 c7             	and    %rax,%r15
  403952:	48 8d 35 3c 08 02 00 	lea    0x2083c(%rip),%rsi        # 424195 <_IO_stdin_used+0x195>
  403959:	4c 89 ff             	mov    %r15,%rdi
  40395c:	31 d2                	xor    %edx,%edx
  40395e:	e8 bd ae 00 00       	callq  40e820 <_ZN11__sanitizer9MmapOrDieEmPKcb>
  403963:	49 89 46 08          	mov    %rax,0x8(%r14)
  403967:	48 89 c1             	mov    %rax,%rcx
  40396a:	4c 01 f9             	add    %r15,%rcx
  40396d:	49 89 0e             	mov    %rcx,(%r14)
  403970:	48 8b 15 11 73 0b 00 	mov    0xb7311(%rip),%rdx        # 4bac88 <_ZN11__sanitizerL24low_level_alloc_callbackE>
  403977:	48 85 d2             	test   %rdx,%rdx
  40397a:	74 0f                	je     40398b <_ZN11__sanitizer17LowLevelAllocator8AllocateEm+0xab>
  40397c:	48 89 c7             	mov    %rax,%rdi
  40397f:	4c 89 fe             	mov    %r15,%rsi
  403982:	ff d2                	callq  *%rdx
  403984:	49 8b 0e             	mov    (%r14),%rcx
  403987:	49 8b 46 08          	mov    0x8(%r14),%rax
  40398b:	48 29 c1             	sub    %rax,%rcx
  40398e:	48 39 d9             	cmp    %rbx,%rcx
  403991:	7c 24                	jl     4039b7 <_ZN11__sanitizer17LowLevelAllocator8AllocateEm+0xd7>
  403993:	48 01 c3             	add    %rax,%rbx
  403996:	49 89 5e 08          	mov    %rbx,0x8(%r14)
  40399a:	48 83 c4 08          	add    $0x8,%rsp
  40399e:	5b                   	pop    %rbx
  40399f:	41 5c                	pop    %r12
  4039a1:	41 5e                	pop    %r14
  4039a3:	41 5f                	pop    %r15
  4039a5:	c3                   	retq   
  4039a6:	48 8d 3d 38 10 02 00 	lea    0x21038(%rip),%rdi        # 4249e5 <_IO_stdin_used+0x9e5>
  4039ad:	e8 7e 45 00 00       	callq  407f30 <_ZN11__sanitizer8RawWriteEPKc>
  4039b2:	e8 c9 fd 00 00       	callq  413780 <_ZN11__sanitizer3DieEv>
  4039b7:	48 8d 3d 6c 06 02 00 	lea    0x2066c(%rip),%rdi        # 42402a <_IO_stdin_used+0x2a>
  4039be:	48 8d 15 d9 07 02 00 	lea    0x207d9(%rip),%rdx        # 42419e <_IO_stdin_used+0x19e>
  4039c5:	be e1 00 00 00       	mov    $0xe1,%esi
  4039ca:	31 c9                	xor    %ecx,%ecx
  4039cc:	45 31 c0             	xor    %r8d,%r8d
  4039cf:	e8 8c fe 00 00       	callq  413860 <_ZN11__sanitizer11CheckFailedEPKciS1_yy>
  4039d4:	66 2e 0f 1f 84 00 00 	nopw   %cs:0x0(%rax,%rax,1)
  4039db:	00 00 00 
  4039de:	66 90                	xchg   %ax,%ax

00000000004039e0 <_ZN11__sanitizer31SetLowLevelAllocateMinAlignmentEm>:
  4039e0:	50                   	push   %rax
  4039e1:	48 8d 47 ff          	lea    -0x1(%rdi),%rax
  4039e5:	48 85 c7             	test   %rax,%rdi
  4039e8:	75 17                	jne    403a01 <_ZN11__sanitizer31SetLowLevelAllocateMinAlignmentEm+0x21>
  4039ea:	48 8b 05 8f 37 03 00 	mov    0x3378f(%rip),%rax        # 437180 <_ZN11__sanitizerL29low_level_alloc_min_alignmentE>
  4039f1:	48 39 f8             	cmp    %rdi,%rax
  4039f4:	48 0f 42 c7          	cmovb  %rdi,%rax
  4039f8:	48 89 05 81 37 03 00 	mov    %rax,0x33781(%rip)        # 437180 <_ZN11__sanitizerL29low_level_alloc_min_alignmentE>
  4039ff:	58                   	pop    %rax
  403a00:	c3                   	retq   
  403a01:	48 8d 3d 22 06 02 00 	lea    0x20622(%rip),%rdi        # 42402a <_IO_stdin_used+0x2a>
  403a08:	48 8d 15 cc 07 02 00 	lea    0x207cc(%rip),%rdx        # 4241db <_IO_stdin_used+0x1db>
  403a0f:	be e8 00 00 00       	mov    $0xe8,%esi
  403a14:	31 c9                	xor    %ecx,%ecx
  403a16:	45 31 c0             	xor    %r8d,%r8d
  403a19:	e8 42 fe 00 00       	callq  413860 <_ZN11__sanitizer11CheckFailedEPKciS1_yy>
  403a1e:	66 90                	xchg   %ax,%ax

0000000000403a20 <_ZN11__sanitizer27SetLowLevelAllocateCallbackEPFvmmE>:
  403a20:	48 89 3d 61 72 0b 00 	mov    %rdi,0xb7261(%rip)        # 4bac88 <_ZN11__sanitizerL24low_level_alloc_callbackE>
  403a27:	c3                   	retq   
  403a28:	0f 1f 84 00 00 00 00 	nopl   0x0(%rax,%rax,1)
  403a2f:	00 

0000000000403a30 <_ZN11__sanitizer22IsAllocatorOutOfMemoryEv>:
  403a30:	80 3d 59 72 0b 00 00 	cmpb   $0x0,0xb7259(%rip)        # 4bac90 <_ZN11__sanitizerL23allocator_out_of_memoryE>
  403a37:	0f 95 c0             	setne  %al
  403a3a:	c3                   	retq   
  403a3b:	0f 1f 44 00 00       	nopl   0x0(%rax,%rax,1)

0000000000403a40 <_ZN11__sanitizer23SetAllocatorOutOfMemoryEv>:
  403a40:	c6 05 49 72 0b 00 01 	movb   $0x1,0xb7249(%rip)        # 4bac90 <_ZN11__sanitizerL23allocator_out_of_memoryE>
  403a47:	c3                   	retq   
  403a48:	0f 1f 84 00 00 00 00 	nopl   0x0(%rax,%rax,1)
  403a4f:	00 

0000000000403a50 <_ZN11__sanitizer22AllocatorMayReturnNullEv>:
  403a50:	80 3d 3a 72 0b 00 00 	cmpb   $0x0,0xb723a(%rip)        # 4bac91 <_ZN11__sanitizerL25allocator_may_return_nullE>
  403a57:	0f 95 c0             	setne  %al
  403a5a:	c3                   	retq   
  403a5b:	0f 1f 44 00 00       	nopl   0x0(%rax,%rax,1)

0000000000403a60 <_ZN11__sanitizer25SetAllocatorMayReturnNullEb>:
  403a60:	40 88 3d 2a 72 0b 00 	mov    %dil,0xb722a(%rip)        # 4bac91 <_ZN11__sanitizerL25allocator_may_return_nullE>
  403a67:	c3                   	retq   
  403a68:	0f 1f 84 00 00 00 00 	nopl   0x0(%rax,%rax,1)
  403a6f:	00 

0000000000403a70 <_ZN11__sanitizer34PrintHintAllocatorCannotReturnNullEv>:
  403a70:	48 8d 3d 87 07 02 00 	lea    0x20787(%rip),%rdi        # 4241fe <_IO_stdin_used+0x1fe>
  403a77:	31 c0                	xor    %eax,%eax
  403a79:	e9 e2 c5 00 00       	jmpq   410060 <_ZN11__sanitizer6ReportEPKcz>
  403a7e:	66 90                	xchg   %ax,%ax

0000000000403a80 <_ZN11__sanitizer17CombinedAllocatorINS_20SizeClassAllocator32INS_4AP32EEENS_32LargeMmapAllocatorPtrArrayStaticEE8AllocateEPNS_30SizeClassAllocator32LocalCacheIS3_EEmm>:
  403a80:	41 57                	push   %r15
  403a82:	41 56                	push   %r14
  403a84:	41 54                	push   %r12
  403a86:	53                   	push   %rbx
  403a87:	50                   	push   %rax
  403a88:	49 89 cf             	mov    %rcx,%r15
  403a8b:	48 89 d0             	mov    %rdx,%rax
  403a8e:	48 85 d2             	test   %rdx,%rdx
  403a91:	ba 01 00 00 00       	mov    $0x1,%edx
  403a96:	48 0f 45 d0          	cmovne %rax,%rdx
  403a9a:	48 89 d0             	mov    %rdx,%rax
  403a9d:	48 f7 d0             	not    %rax
  403aa0:	48 39 c8             	cmp    %rcx,%rax
  403aa3:	73 22                	jae    403ac7 <_ZN11__sanitizer17CombinedAllocatorINS_20SizeClassAllocator32INS_4AP32EEENS_32LargeMmapAllocatorPtrArrayStaticEE8AllocateEPNS_30SizeClassAllocator32LocalCacheIS3_EEmm+0x47>
  403aa5:	48 8d 05 dc 36 03 00 	lea    0x336dc(%rip),%rax        # 437188 <_ZN11__sanitizer17SanitizerToolNameE>
  403aac:	48 8b 30             	mov    (%rax),%rsi
  403aaf:	48 8d 3d 9c 07 02 00 	lea    0x2079c(%rip),%rdi        # 424252 <_IO_stdin_used+0x252>
  403ab6:	31 db                	xor    %ebx,%ebx
  403ab8:	4c 89 f9             	mov    %r15,%rcx
  403abb:	31 c0                	xor    %eax,%eax
  403abd:	e8 9e c5 00 00       	callq  410060 <_ZN11__sanitizer6ReportEPKcz>
  403ac2:	e9 fb 00 00 00       	jmpq   403bc2 <_ZN11__sanitizer17CombinedAllocatorINS_20SizeClassAllocator32INS_4AP32EEENS_32LargeMmapAllocatorPtrArrayStaticEE8AllocateEPNS_30SizeClassAllocator32LocalCacheIS3_EEmm+0x142>
  403ac7:	49 89 f6             	mov    %rsi,%r14
  403aca:	49 89 f8             	mov    %rdi,%r8
  403acd:	48 89 d0             	mov    %rdx,%rax
  403ad0:	49 83 ff 09          	cmp    $0x9,%r15
  403ad4:	72 1e                	jb     403af4 <_ZN11__sanitizer17CombinedAllocatorINS_20SizeClassAllocator32INS_4AP32EEENS_32LargeMmapAllocatorPtrArrayStaticEE8AllocateEPNS_30SizeClassAllocator32LocalCacheIS3_EEmm+0x74>
  403ad6:	49 8d 47 ff          	lea    -0x1(%r15),%rax
  403ada:	49 85 c7             	test   %rax,%r15
  403add:	0f 85 12 01 00 00    	jne    403bf5 <_ZN11__sanitizer17CombinedAllocatorINS_20SizeClassAllocator32INS_4AP32EEENS_32LargeMmapAllocatorPtrArrayStaticEE8AllocateEPNS_30SizeClassAllocator32LocalCacheIS3_EEmm+0x175>
  403ae3:	49 8d 0c 17          	lea    (%r15,%rdx,1),%rcx
  403ae7:	48 83 c1 ff          	add    $0xffffffffffffffff,%rcx
  403aeb:	4c 89 f8             	mov    %r15,%rax
  403aee:	48 f7 d8             	neg    %rax
  403af1:	48 21 c8             	and    %rcx,%rax
  403af4:	49 81 ff 00 00 02 00 	cmp    $0x20000,%r15
  403afb:	77 1a                	ja     403b17 <_ZN11__sanitizer17CombinedAllocatorINS_20SizeClassAllocator32INS_4AP32EEENS_32LargeMmapAllocatorPtrArrayStaticEE8AllocateEPNS_30SizeClassAllocator32LocalCacheIS3_EEmm+0x97>
  403afd:	48 3d 00 00 02 00    	cmp    $0x20000,%rax
  403b03:	77 12                	ja     403b17 <_ZN11__sanitizer17CombinedAllocatorINS_20SizeClassAllocator32INS_4AP32EEENS_32LargeMmapAllocatorPtrArrayStaticEE8AllocateEPNS_30SizeClassAllocator32LocalCacheIS3_EEmm+0x97>
  403b05:	48 3d 00 01 00 00    	cmp    $0x100,%rax
  403b0b:	77 31                	ja     403b3e <_ZN11__sanitizer17CombinedAllocatorINS_20SizeClassAllocator32INS_4AP32EEENS_32LargeMmapAllocatorPtrArrayStaticEE8AllocateEPNS_30SizeClassAllocator32LocalCacheIS3_EEmm+0xbe>
  403b0d:	48 83 c0 0f          	add    $0xf,%rax
  403b11:	48 c1 e8 04          	shr    $0x4,%rax
  403b15:	eb 51                	jmp    403b68 <_ZN11__sanitizer17CombinedAllocatorINS_20SizeClassAllocator32INS_4AP32EEENS_32LargeMmapAllocatorPtrArrayStaticEE8AllocateEPNS_30SizeClassAllocator32LocalCacheIS3_EEmm+0xe8>
  403b17:	49 8d b8 c0 0d 04 00 	lea    0x40dc0(%r8),%rdi
  403b1e:	49 81 c0 08 10 08 00 	add    $0x81008,%r8
  403b25:	4c 89 c6             	mov    %r8,%rsi
  403b28:	4c 89 f9             	mov    %r15,%rcx
  403b2b:	e8 40 01 00 00       	callq  403c70 <_ZN11__sanitizer18LargeMmapAllocatorINS_20NoOpMapUnmapCallbackENS_32LargeMmapAllocatorPtrArrayStaticENS_21LocalAddressSpaceViewEE8AllocateEPNS_14AllocatorStatsEmm>
  403b30:	48 89 c3             	mov    %rax,%rbx
  403b33:	49 83 ff 09          	cmp    $0x9,%r15
  403b37:	73 7c                	jae    403bb5 <_ZN11__sanitizer17CombinedAllocatorINS_20SizeClassAllocator32INS_4AP32EEENS_32LargeMmapAllocatorPtrArrayStaticEE8AllocateEPNS_30SizeClassAllocator32LocalCacheIS3_EEmm+0x135>
  403b39:	e9 84 00 00 00       	jmpq   403bc2 <_ZN11__sanitizer17CombinedAllocatorINS_20SizeClassAllocator32INS_4AP32EEENS_32LargeMmapAllocatorPtrArrayStaticEE8AllocateEPNS_30SizeClassAllocator32LocalCacheIS3_EEmm+0x142>
  403b3e:	48 0f bd d0          	bsr    %rax,%rdx
  403b42:	8d 4a fe             	lea    -0x2(%rdx),%ecx
  403b45:	48 89 c6             	mov    %rax,%rsi
  403b48:	48 d3 ee             	shr    %cl,%rsi
  403b4b:	bf ff ff ff ff       	mov    $0xffffffff,%edi
  403b50:	d3 e7                	shl    %cl,%edi
  403b52:	83 e6 03             	and    $0x3,%esi
  403b55:	f7 d7                	not    %edi
  403b57:	21 f8                	and    %edi,%eax
  403b59:	83 f8 01             	cmp    $0x1,%eax
  403b5c:	48 8d 04 96          	lea    (%rsi,%rdx,4),%rax
  403b60:	48 83 d8 ff          	sbb    $0xffffffffffffffff,%rax
  403b64:	48 83 c0 f0          	add    $0xfffffffffffffff0,%rax
  403b68:	48 85 c0             	test   %rax,%rax
  403b6b:	0f 84 95 00 00 00    	je     403c06 <_ZN11__sanitizer17CombinedAllocatorINS_20SizeClassAllocator32INS_4AP32EEENS_32LargeMmapAllocatorPtrArrayStaticEE8AllocateEPNS_30SizeClassAllocator32LocalCacheIS3_EEmm+0x186>
  403b71:	48 83 f8 36          	cmp    $0x36,%rax
  403b75:	0f 83 a8 00 00 00    	jae    403c23 <_ZN11__sanitizer17CombinedAllocatorINS_20SizeClassAllocator32INS_4AP32EEENS_32LargeMmapAllocatorPtrArrayStaticEE8AllocateEPNS_30SizeClassAllocator32LocalCacheIS3_EEmm+0x1a3>
  403b7b:	49 89 c4             	mov    %rax,%r12
  403b7e:	49 c1 e4 0a          	shl    $0xa,%r12
  403b82:	4b 8d 1c 26          	lea    (%r14,%r12,1),%rbx
  403b86:	4b 8b 0c 26          	mov    (%r14,%r12,1),%rcx
  403b8a:	48 85 c9             	test   %rcx,%rcx
  403b8d:	74 42                	je     403bd1 <_ZN11__sanitizer17CombinedAllocatorINS_20SizeClassAllocator32INS_4AP32EEENS_32LargeMmapAllocatorPtrArrayStaticEE8AllocateEPNS_30SizeClassAllocator32LocalCacheIS3_EEmm+0x151>
  403b8f:	48 8d 41 ff          	lea    -0x1(%rcx),%rax
  403b93:	48 89 03             	mov    %rax,(%rbx)
  403b96:	48 8b 44 cb 10       	mov    0x10(%rbx,%rcx,8),%rax
  403b9b:	48 8b 5c cb 18       	mov    0x18(%rbx,%rcx,8),%rbx
  403ba0:	0f 18 00             	prefetchnta (%rax)
  403ba3:	4b 8b 44 26 10       	mov    0x10(%r14,%r12,1),%rax
  403ba8:	49 01 86 10 d8 00 00 	add    %rax,0xd810(%r14)
  403baf:	49 83 ff 09          	cmp    $0x9,%r15
  403bb3:	72 0d                	jb     403bc2 <_ZN11__sanitizer17CombinedAllocatorINS_20SizeClassAllocator32INS_4AP32EEENS_32LargeMmapAllocatorPtrArrayStaticEE8AllocateEPNS_30SizeClassAllocator32LocalCacheIS3_EEmm+0x142>
  403bb5:	49 83 c7 ff          	add    $0xffffffffffffffff,%r15
  403bb9:	49 21 df             	and    %rbx,%r15
  403bbc:	0f 85 82 00 00 00    	jne    403c44 <_ZN11__sanitizer17CombinedAllocatorINS_20SizeClassAllocator32INS_4AP32EEENS_32LargeMmapAllocatorPtrArrayStaticEE8AllocateEPNS_30SizeClassAllocator32LocalCacheIS3_EEmm+0x1c4>
  403bc2:	48 89 d8             	mov    %rbx,%rax
  403bc5:	48 83 c4 08          	add    $0x8,%rsp
  403bc9:	5b                   	pop    %rbx
  403bca:	41 5c                	pop    %r12
  403bcc:	41 5e                	pop    %r14
  403bce:	41 5f                	pop    %r15
  403bd0:	c3                   	retq   
  403bd1:	4c 89 f7             	mov    %r14,%rdi
  403bd4:	48 89 de             	mov    %rbx,%rsi
  403bd7:	4c 89 c2             	mov    %r8,%rdx
  403bda:	48 89 c1             	mov    %rax,%rcx
  403bdd:	e8 1e 03 00 00       	callq  403f00 <_ZN11__sanitizer30SizeClassAllocator32LocalCacheINS_20SizeClassAllocator32INS_4AP32EEEE6RefillEPNS4_8PerClassEPS3_m>
  403be2:	84 c0                	test   %al,%al
  403be4:	74 05                	je     403beb <_ZN11__sanitizer17CombinedAllocatorINS_20SizeClassAllocator32INS_4AP32EEENS_32LargeMmapAllocatorPtrArrayStaticEE8AllocateEPNS_30SizeClassAllocator32LocalCacheIS3_EEmm+0x16b>
  403be6:	48 8b 0b             	mov    (%rbx),%rcx
  403be9:	eb a4                	jmp    403b8f <_ZN11__sanitizer17CombinedAllocatorINS_20SizeClassAllocator32INS_4AP32EEENS_32LargeMmapAllocatorPtrArrayStaticEE8AllocateEPNS_30SizeClassAllocator32LocalCacheIS3_EEmm+0x10f>
  403beb:	31 db                	xor    %ebx,%ebx
  403bed:	49 83 ff 09          	cmp    $0x9,%r15
  403bf1:	73 c2                	jae    403bb5 <_ZN11__sanitizer17CombinedAllocatorINS_20SizeClassAllocator32INS_4AP32EEENS_32LargeMmapAllocatorPtrArrayStaticEE8AllocateEPNS_30SizeClassAllocator32LocalCacheIS3_EEmm+0x135>
  403bf3:	eb cd                	jmp    403bc2 <_ZN11__sanitizer17CombinedAllocatorINS_20SizeClassAllocator32INS_4AP32EEENS_32LargeMmapAllocatorPtrArrayStaticEE8AllocateEPNS_30SizeClassAllocator32LocalCacheIS3_EEmm+0x142>
  403bf5:	48 8d 3d e9 0d 02 00 	lea    0x20de9(%rip),%rdi        # 4249e5 <_IO_stdin_used+0x9e5>
  403bfc:	e8 2f 43 00 00       	callq  407f30 <_ZN11__sanitizer8RawWriteEPKc>
  403c01:	e8 7a fb 00 00       	callq  413780 <_ZN11__sanitizer3DieEv>
  403c06:	48 8d 3d 59 07 02 00 	lea    0x20759(%rip),%rdi        # 424366 <_IO_stdin_used+0x366>
  403c0d:	48 8d 15 ce 07 02 00 	lea    0x207ce(%rip),%rdx        # 4243e2 <_IO_stdin_used+0x3e2>
  403c14:	be 99 00 00 00       	mov    $0x99,%esi
  403c19:	31 c9                	xor    %ecx,%ecx
  403c1b:	45 31 c0             	xor    %r8d,%r8d
  403c1e:	e8 3d fc 00 00       	callq  413860 <_ZN11__sanitizer11CheckFailedEPKciS1_yy>
  403c23:	48 8d 3d 3c 07 02 00 	lea    0x2073c(%rip),%rdi        # 424366 <_IO_stdin_used+0x366>
  403c2a:	48 8d 15 c9 07 02 00 	lea    0x207c9(%rip),%rdx        # 4243fa <_IO_stdin_used+0x3fa>
  403c31:	41 b8 36 00 00 00    	mov    $0x36,%r8d
  403c37:	be 9a 00 00 00       	mov    $0x9a,%esi
  403c3c:	48 89 c1             	mov    %rax,%rcx
  403c3f:	e8 1c fc 00 00       	callq  413860 <_ZN11__sanitizer11CheckFailedEPKciS1_yy>
  403c44:	48 8d 3d 67 06 02 00 	lea    0x20667(%rip),%rdi        # 4242b2 <_IO_stdin_used+0x2b2>
  403c4b:	48 8d 15 d9 06 02 00 	lea    0x206d9(%rip),%rdx        # 42432b <_IO_stdin_used+0x32b>
  403c52:	be 49 00 00 00       	mov    $0x49,%esi
  403c57:	4c 89 f9             	mov    %r15,%rcx
  403c5a:	45 31 c0             	xor    %r8d,%r8d
  403c5d:	e8 fe fb 00 00       	callq  413860 <_ZN11__sanitizer11CheckFailedEPKciS1_yy>
  403c62:	66 2e 0f 1f 84 00 00 	nopw   %cs:0x0(%rax,%rax,1)
  403c69:	00 00 00 
  403c6c:	0f 1f 40 00          	nopl   0x0(%rax)

0000000000403c70 <_ZN11__sanitizer18LargeMmapAllocatorINS_20NoOpMapUnmapCallbackENS_32LargeMmapAllocatorPtrArrayStaticENS_21LocalAddressSpaceViewEE8AllocateEPNS_14AllocatorStatsEmm>:
  403c70:	55                   	push   %rbp
  403c71:	41 57                	push   %r15
  403c73:	41 56                	push   %r14
  403c75:	41 55                	push   %r13
  403c77:	41 54                	push   %r12
  403c79:	53                   	push   %rbx
  403c7a:	50                   	push   %rax
  403c7b:	48 8d 69 ff          	lea    -0x1(%rcx),%rbp
  403c7f:	48 85 e9             	test   %rbp,%rcx
  403c82:	0f 85 a0 01 00 00    	jne    403e28 <_ZN11__sanitizer18LargeMmapAllocatorINS_20NoOpMapUnmapCallbackENS_32LargeMmapAllocatorPtrArrayStaticENS_21LocalAddressSpaceViewEE8AllocateEPNS_14AllocatorStatsEmm+0x1b8>
  403c88:	49 89 cc             	mov    %rcx,%r12
  403c8b:	49 89 fe             	mov    %rdi,%r14
  403c8e:	48 8b 07             	mov    (%rdi),%rax
  403c91:	48 8d 48 ff          	lea    -0x1(%rax),%rcx
  403c95:	48 85 c8             	test   %rcx,%rax
  403c98:	0f 85 a2 01 00 00    	jne    403e40 <_ZN11__sanitizer18LargeMmapAllocatorINS_20NoOpMapUnmapCallbackENS_32LargeMmapAllocatorPtrArrayStaticENS_21LocalAddressSpaceViewEE8AllocateEPNS_14AllocatorStatsEmm+0x1d0>
  403c9e:	49 89 d5             	mov    %rdx,%r13
  403ca1:	48 8d 0c 02          	lea    (%rdx,%rax,1),%rcx
  403ca5:	48 83 c1 ff          	add    $0xffffffffffffffff,%rcx
  403ca9:	48 89 c2             	mov    %rax,%rdx
  403cac:	48 f7 da             	neg    %rdx
  403caf:	48 21 ca             	and    %rcx,%rdx
  403cb2:	48 01 c2             	add    %rax,%rdx
  403cb5:	31 db                	xor    %ebx,%ebx
  403cb7:	4c 39 e0             	cmp    %r12,%rax
  403cba:	49 0f 42 dc          	cmovb  %r12,%rbx
  403cbe:	48 01 d3             	add    %rdx,%rbx
  403cc1:	4c 39 eb             	cmp    %r13,%rbx
  403cc4:	73 26                	jae    403cec <_ZN11__sanitizer18LargeMmapAllocatorINS_20NoOpMapUnmapCallbackENS_32LargeMmapAllocatorPtrArrayStaticENS_21LocalAddressSpaceViewEE8AllocateEPNS_14AllocatorStatsEmm+0x7c>
  403cc6:	48 8d 05 bb 34 03 00 	lea    0x334bb(%rip),%rax        # 437188 <_ZN11__sanitizer17SanitizerToolNameE>
  403ccd:	48 8b 30             	mov    (%rax),%rsi
  403cd0:	48 8d 3d 87 0a 02 00 	lea    0x20a87(%rip),%rdi        # 42475e <_IO_stdin_used+0x75e>
  403cd7:	45 31 f6             	xor    %r14d,%r14d
  403cda:	48 89 da             	mov    %rbx,%rdx
  403cdd:	4c 89 e1             	mov    %r12,%rcx
  403ce0:	31 c0                	xor    %eax,%eax
  403ce2:	e8 79 c3 00 00       	callq  410060 <_ZN11__sanitizer6ReportEPKcz>
  403ce7:	e9 2a 01 00 00       	jmpq   403e16 <_ZN11__sanitizer18LargeMmapAllocatorINS_20NoOpMapUnmapCallbackENS_32LargeMmapAllocatorPtrArrayStaticENS_21LocalAddressSpaceViewEE8AllocateEPNS_14AllocatorStatsEmm+0x1a6>
  403cec:	49 89 f7             	mov    %rsi,%r15
  403cef:	48 8b 35 82 34 03 00 	mov    0x33482(%rip),%rsi        # 437178 <_ZN11__sanitizer22SecondaryAllocatorNameE>
  403cf6:	48 89 df             	mov    %rbx,%rdi
  403cf9:	e8 e2 ac 00 00       	callq  40e9e0 <_ZN11__sanitizer21MmapOrDieOnFatalErrorEmPKc>
  403cfe:	48 85 c0             	test   %rax,%rax
  403d01:	0f 84 0c 01 00 00    	je     403e13 <_ZN11__sanitizer18LargeMmapAllocatorINS_20NoOpMapUnmapCallbackENS_32LargeMmapAllocatorPtrArrayStaticENS_21LocalAddressSpaceViewEE8AllocateEPNS_14AllocatorStatsEmm+0x1a3>
  403d07:	49 8b 16             	mov    (%r14),%rdx
  403d0a:	48 8d 4a ff          	lea    -0x1(%rdx),%rcx
  403d0e:	48 85 c1             	test   %rax,%rcx
  403d11:	0f 85 3a 01 00 00    	jne    403e51 <_ZN11__sanitizer18LargeMmapAllocatorINS_20NoOpMapUnmapCallbackENS_32LargeMmapAllocatorPtrArrayStaticENS_21LocalAddressSpaceViewEE8AllocateEPNS_14AllocatorStatsEmm+0x1e1>
  403d17:	48 8d 34 02          	lea    (%rdx,%rax,1),%rsi
  403d1b:	48 89 f7             	mov    %rsi,%rdi
  403d1e:	48 21 ef             	and    %rbp,%rdi
  403d21:	49 29 fc             	sub    %rdi,%r12
  403d24:	48 85 ff             	test   %rdi,%rdi
  403d27:	4c 0f 44 e7          	cmove  %rdi,%r12
  403d2b:	49 01 f4             	add    %rsi,%r12
  403d2e:	49 85 ec             	test   %rbp,%r12
  403d31:	0f 85 2f 01 00 00    	jne    403e66 <_ZN11__sanitizer18LargeMmapAllocatorINS_20NoOpMapUnmapCallbackENS_32LargeMmapAllocatorPtrArrayStaticENS_21LocalAddressSpaceViewEE8AllocateEPNS_14AllocatorStatsEmm+0x1f6>
  403d37:	49 85 cc             	test   %rcx,%r12
  403d3a:	0f 85 3b 01 00 00    	jne    403e7b <_ZN11__sanitizer18LargeMmapAllocatorINS_20NoOpMapUnmapCallbackENS_32LargeMmapAllocatorPtrArrayStaticENS_21LocalAddressSpaceViewEE8AllocateEPNS_14AllocatorStatsEmm+0x20b>
  403d40:	4b 8d 0c 2c          	lea    (%r12,%r13,1),%rcx
  403d44:	48 39 c1             	cmp    %rax,%rcx
  403d47:	0f 82 43 01 00 00    	jb     403e90 <_ZN11__sanitizer18LargeMmapAllocatorINS_20NoOpMapUnmapCallbackENS_32LargeMmapAllocatorPtrArrayStaticENS_21LocalAddressSpaceViewEE8AllocateEPNS_14AllocatorStatsEmm+0x220>
  403d4d:	49 89 c0             	mov    %rax,%r8
  403d50:	49 01 d8             	add    %rbx,%r8
  403d53:	4c 39 c1             	cmp    %r8,%rcx
  403d56:	0f 87 4f 01 00 00    	ja     403eab <_ZN11__sanitizer18LargeMmapAllocatorINS_20NoOpMapUnmapCallbackENS_32LargeMmapAllocatorPtrArrayStaticENS_21LocalAddressSpaceViewEE8AllocateEPNS_14AllocatorStatsEmm+0x23b>
  403d5c:	4c 89 e5             	mov    %r12,%rbp
  403d5f:	48 29 d5             	sub    %rdx,%rbp
  403d62:	4c 89 6d 10          	mov    %r13,0x10(%rbp)
  403d66:	48 89 45 00          	mov    %rax,0x0(%rbp)
  403d6a:	48 89 5d 08          	mov    %rbx,0x8(%rbp)
  403d6e:	48 85 db             	test   %rbx,%rbx
  403d71:	0f 84 4c 01 00 00    	je     403ec3 <_ZN11__sanitizer18LargeMmapAllocatorINS_20NoOpMapUnmapCallbackENS_32LargeMmapAllocatorPtrArrayStaticENS_21LocalAddressSpaceViewEE8AllocateEPNS_14AllocatorStatsEmm+0x253>
  403d77:	b0 01                	mov    $0x1,%al
  403d79:	41 86 86 40 02 04 00 	xchg   %al,0x40240(%r14)
  403d80:	84 c0                	test   %al,%al
  403d82:	74 0c                	je     403d90 <_ZN11__sanitizer18LargeMmapAllocatorINS_20NoOpMapUnmapCallbackENS_32LargeMmapAllocatorPtrArrayStaticENS_21LocalAddressSpaceViewEE8AllocateEPNS_14AllocatorStatsEmm+0x120>
  403d84:	49 8d be 40 02 04 00 	lea    0x40240(%r14),%rdi
  403d8b:	e8 d0 15 00 00       	callq  405360 <_ZN11__sanitizer15StaticSpinMutex8LockSlowEv>
  403d90:	49 8b 8e 10 00 04 00 	mov    0x40010(%r14),%rcx
  403d97:	48 81 f9 00 80 00 00 	cmp    $0x8000,%rcx
  403d9e:	0f 83 3c 01 00 00    	jae    403ee0 <_ZN11__sanitizer18LargeMmapAllocatorINS_20NoOpMapUnmapCallbackENS_32LargeMmapAllocatorPtrArrayStaticENS_21LocalAddressSpaceViewEE8AllocateEPNS_14AllocatorStatsEmm+0x270>
  403da4:	48 0f bd c3          	bsr    %rbx,%rax
  403da8:	48 8d 51 01          	lea    0x1(%rcx),%rdx
  403dac:	49 89 96 10 00 04 00 	mov    %rdx,0x40010(%r14)
  403db3:	48 89 4d 18          	mov    %rcx,0x18(%rbp)
  403db7:	49 8b 56 08          	mov    0x8(%r14),%rdx
  403dbb:	48 89 2c ca          	mov    %rbp,(%rdx,%rcx,8)
  403dbf:	41 c6 86 18 00 04 00 	movb   $0x0,0x40018(%r14)
  403dc6:	00 
  403dc7:	49 83 86 20 00 04 00 	addq   $0x1,0x40020(%r14)
  403dce:	01 
  403dcf:	49 8b 8e 30 00 04 00 	mov    0x40030(%r14),%rcx
  403dd6:	48 01 d9             	add    %rbx,%rcx
  403dd9:	49 89 8e 30 00 04 00 	mov    %rcx,0x40030(%r14)
  403de0:	49 8b 96 38 00 04 00 	mov    0x40038(%r14),%rdx
  403de7:	48 39 ca             	cmp    %rcx,%rdx
  403dea:	48 0f 47 ca          	cmova  %rdx,%rcx
  403dee:	49 89 8e 38 00 04 00 	mov    %rcx,0x40038(%r14)
  403df5:	49 83 84 c6 40 00 04 	addq   $0x1,0x40040(%r14,%rax,8)
  403dfc:	00 01 
  403dfe:	49 01 5f 10          	add    %rbx,0x10(%r15)
  403e02:	49 01 5f 18          	add    %rbx,0x18(%r15)
  403e06:	41 c6 86 40 02 04 00 	movb   $0x0,0x40240(%r14)
  403e0d:	00 
  403e0e:	4d 89 e6             	mov    %r12,%r14
  403e11:	eb 03                	jmp    403e16 <_ZN11__sanitizer18LargeMmapAllocatorINS_20NoOpMapUnmapCallbackENS_32LargeMmapAllocatorPtrArrayStaticENS_21LocalAddressSpaceViewEE8AllocateEPNS_14AllocatorStatsEmm+0x1a6>
  403e13:	45 31 f6             	xor    %r14d,%r14d
  403e16:	4c 89 f0             	mov    %r14,%rax
  403e19:	48 83 c4 08          	add    $0x8,%rsp
  403e1d:	5b                   	pop    %rbx
  403e1e:	41 5c                	pop    %r12
  403e20:	41 5d                	pop    %r13
  403e22:	41 5e                	pop    %r14
  403e24:	41 5f                	pop    %r15
  403e26:	5d                   	pop    %rbp
  403e27:	c3                   	retq   
  403e28:	48 8d 3d b5 08 02 00 	lea    0x208b5(%rip),%rdi        # 4246e4 <_IO_stdin_used+0x6e4>
  403e2f:	48 8d 15 a5 03 02 00 	lea    0x203a5(%rip),%rdx        # 4241db <_IO_stdin_used+0x1db>
  403e36:	be 56 00 00 00       	mov    $0x56,%esi
  403e3b:	e9 96 00 00 00       	jmpq   403ed6 <_ZN11__sanitizer18LargeMmapAllocatorINS_20NoOpMapUnmapCallbackENS_32LargeMmapAllocatorPtrArrayStaticENS_21LocalAddressSpaceViewEE8AllocateEPNS_14AllocatorStatsEmm+0x266>
  403e40:	48 8d 3d 9e 0b 02 00 	lea    0x20b9e(%rip),%rdi        # 4249e5 <_IO_stdin_used+0x9e5>
  403e47:	e8 e4 40 00 00       	callq  407f30 <_ZN11__sanitizer8RawWriteEPKc>
  403e4c:	e8 2f f9 00 00       	callq  413780 <_ZN11__sanitizer3DieEv>
  403e51:	48 8d 3d 8c 08 02 00 	lea    0x2088c(%rip),%rdi        # 4246e4 <_IO_stdin_used+0x6e4>
  403e58:	48 8d 15 60 09 02 00 	lea    0x20960(%rip),%rdx        # 4247bf <_IO_stdin_used+0x7bf>
  403e5f:	be 65 00 00 00       	mov    $0x65,%esi
  403e64:	eb 70                	jmp    403ed6 <_ZN11__sanitizer18LargeMmapAllocatorINS_20NoOpMapUnmapCallbackENS_32LargeMmapAllocatorPtrArrayStaticENS_21LocalAddressSpaceViewEE8AllocateEPNS_14AllocatorStatsEmm+0x266>
  403e66:	48 8d 3d 77 08 02 00 	lea    0x20877(%rip),%rdi        # 4246e4 <_IO_stdin_used+0x6e4>
  403e6d:	48 8d 15 75 09 02 00 	lea    0x20975(%rip),%rdx        # 4247e9 <_IO_stdin_used+0x7e9>
  403e74:	be 6b 00 00 00       	mov    $0x6b,%esi
  403e79:	eb 5b                	jmp    403ed6 <_ZN11__sanitizer18LargeMmapAllocatorINS_20NoOpMapUnmapCallbackENS_32LargeMmapAllocatorPtrArrayStaticENS_21LocalAddressSpaceViewEE8AllocateEPNS_14AllocatorStatsEmm+0x266>
  403e7b:	48 8d 3d 62 08 02 00 	lea    0x20862(%rip),%rdi        # 4246e4 <_IO_stdin_used+0x6e4>
  403e82:	48 8d 15 85 09 02 00 	lea    0x20985(%rip),%rdx        # 42480e <_IO_stdin_used+0x80e>
  403e89:	be 6c 00 00 00       	mov    $0x6c,%esi
  403e8e:	eb 46                	jmp    403ed6 <_ZN11__sanitizer18LargeMmapAllocatorINS_20NoOpMapUnmapCallbackENS_32LargeMmapAllocatorPtrArrayStaticENS_21LocalAddressSpaceViewEE8AllocateEPNS_14AllocatorStatsEmm+0x266>
  403e90:	48 8d 3d 4d 08 02 00 	lea    0x2084d(%rip),%rdi        # 4246e4 <_IO_stdin_used+0x6e4>
  403e97:	48 8d 15 96 09 02 00 	lea    0x20996(%rip),%rdx        # 424834 <_IO_stdin_used+0x834>
  403e9e:	be 6d 00 00 00       	mov    $0x6d,%esi
  403ea3:	49 89 c0             	mov    %rax,%r8
  403ea6:	e8 b5 f9 00 00       	callq  413860 <_ZN11__sanitizer11CheckFailedEPKciS1_yy>
  403eab:	48 8d 3d 32 08 02 00 	lea    0x20832(%rip),%rdi        # 4246e4 <_IO_stdin_used+0x6e4>
  403eb2:	48 8d 15 99 09 02 00 	lea    0x20999(%rip),%rdx        # 424852 <_IO_stdin_used+0x852>
  403eb9:	be 6e 00 00 00       	mov    $0x6e,%esi
  403ebe:	e8 9d f9 00 00       	callq  413860 <_ZN11__sanitizer11CheckFailedEPKciS1_yy>
  403ec3:	48 8d 3d 66 05 02 00 	lea    0x20566(%rip),%rdi        # 424430 <_IO_stdin_used+0x430>
  403eca:	48 8d 15 cc 05 02 00 	lea    0x205cc(%rip),%rdx        # 42449d <_IO_stdin_used+0x49d>
  403ed1:	be 60 01 00 00       	mov    $0x160,%esi
  403ed6:	31 c9                	xor    %ecx,%ecx
  403ed8:	45 31 c0             	xor    %r8d,%r8d
  403edb:	e8 80 f9 00 00       	callq  413860 <_ZN11__sanitizer11CheckFailedEPKciS1_yy>
  403ee0:	48 8d 3d fd 07 02 00 	lea    0x207fd(%rip),%rdi        # 4246e4 <_IO_stdin_used+0x6e4>
  403ee7:	48 8d 15 a6 09 02 00 	lea    0x209a6(%rip),%rdx        # 424894 <_IO_stdin_used+0x894>
  403eee:	41 b8 00 80 00 00    	mov    $0x8000,%r8d
  403ef4:	be 16 00 00 00       	mov    $0x16,%esi
  403ef9:	e8 62 f9 00 00       	callq  413860 <_ZN11__sanitizer11CheckFailedEPKciS1_yy>
  403efe:	66 90                	xchg   %ax,%ax

0000000000403f00 <_ZN11__sanitizer30SizeClassAllocator32LocalCacheINS_20SizeClassAllocator32INS_4AP32EEEE6RefillEPNS4_8PerClassEPS3_m>:
  403f00:	41 57                	push   %r15
  403f02:	41 56                	push   %r14
  403f04:	41 54                	push   %r12
  403f06:	53                   	push   %rbx
  403f07:	50                   	push   %rax
  403f08:	49 89 cc             	mov    %rcx,%r12
  403f0b:	49 89 d6             	mov    %rdx,%r14
  403f0e:	48 89 f3             	mov    %rsi,%rbx
  403f11:	49 89 ff             	mov    %rdi,%r15
  403f14:	48 83 7e 08 00       	cmpq   $0x0,0x8(%rsi)
  403f19:	0f 84 f6 01 00 00    	je     404115 <_ZN11__sanitizer30SizeClassAllocator32LocalCacheINS_20SizeClassAllocator32INS_4AP32EEEE6RefillEPNS4_8PerClassEPS3_m+0x215>
  403f1f:	49 8d b7 00 d8 00 00 	lea    0xd800(%r15),%rsi
  403f26:	4c 89 f7             	mov    %r14,%rdi
  403f29:	4c 89 fa             	mov    %r15,%rdx
  403f2c:	4c 89 e1             	mov    %r12,%rcx
  403f2f:	e8 dc 02 00 00       	callq  404210 <_ZN11__sanitizer20SizeClassAllocator32INS_4AP32EE13AllocateBatchEPNS_14AllocatorStatsEPNS_30SizeClassAllocator32LocalCacheIS2_EEm>
  403f34:	48 85 c0             	test   %rax,%rax
  403f37:	0f 84 aa 02 00 00    	je     4041e7 <_ZN11__sanitizer30SizeClassAllocator32LocalCacheINS_20SizeClassAllocator32INS_4AP32EEEE6RefillEPNS4_8PerClassEPS3_m+0x2e7>
  403f3d:	4c 8b 40 08          	mov    0x8(%rax),%r8
  403f41:	4d 85 c0             	test   %r8,%r8
  403f44:	0f 84 a4 02 00 00    	je     4041ee <_ZN11__sanitizer30SizeClassAllocator32LocalCacheINS_20SizeClassAllocator32INS_4AP32EEEE6RefillEPNS4_8PerClassEPS3_m+0x2ee>
  403f4a:	49 83 f8 03          	cmp    $0x3,%r8
  403f4e:	76 2d                	jbe    403f7d <_ZN11__sanitizer30SizeClassAllocator32LocalCacheINS_20SizeClassAllocator32INS_4AP32EEEE6RefillEPNS4_8PerClassEPS3_m+0x7d>
  403f50:	48 8d 4b 20          	lea    0x20(%rbx),%rcx
  403f54:	4a 8d 14 c0          	lea    (%rax,%r8,8),%rdx
  403f58:	48 83 c2 10          	add    $0x10,%rdx
  403f5c:	48 39 ca             	cmp    %rcx,%rdx
  403f5f:	0f 86 b9 00 00 00    	jbe    40401e <_ZN11__sanitizer30SizeClassAllocator32LocalCacheINS_20SizeClassAllocator32INS_4AP32EEEE6RefillEPNS4_8PerClassEPS3_m+0x11e>
  403f65:	4a 8d 0c c3          	lea    (%rbx,%r8,8),%rcx
  403f69:	48 83 c1 20          	add    $0x20,%rcx
  403f6d:	48 89 c2             	mov    %rax,%rdx
  403f70:	48 83 c2 10          	add    $0x10,%rdx
  403f74:	48 39 d1             	cmp    %rdx,%rcx
  403f77:	0f 86 a1 00 00 00    	jbe    40401e <_ZN11__sanitizer30SizeClassAllocator32LocalCacheINS_20SizeClassAllocator32INS_4AP32EEEE6RefillEPNS4_8PerClassEPS3_m+0x11e>
  403f7d:	31 d2                	xor    %edx,%edx
  403f7f:	44 89 c6             	mov    %r8d,%esi
  403f82:	29 d6                	sub    %edx,%esi
  403f84:	48 89 d1             	mov    %rdx,%rcx
  403f87:	48 f7 d1             	not    %rcx
  403f8a:	4c 01 c1             	add    %r8,%rcx
  403f8d:	48 83 e6 07          	and    $0x7,%rsi
  403f91:	74 21                	je     403fb4 <_ZN11__sanitizer30SizeClassAllocator32LocalCacheINS_20SizeClassAllocator32INS_4AP32EEEE6RefillEPNS4_8PerClassEPS3_m+0xb4>
  403f93:	66 2e 0f 1f 84 00 00 	nopw   %cs:0x0(%rax,%rax,1)
  403f9a:	00 00 00 
  403f9d:	0f 1f 00             	nopl   (%rax)
  403fa0:	48 8b 7c d0 10       	mov    0x10(%rax,%rdx,8),%rdi
  403fa5:	48 89 7c d3 20       	mov    %rdi,0x20(%rbx,%rdx,8)
  403faa:	48 83 c2 01          	add    $0x1,%rdx
  403fae:	48 83 c6 ff          	add    $0xffffffffffffffff,%rsi
  403fb2:	75 ec                	jne    403fa0 <_ZN11__sanitizer30SizeClassAllocator32LocalCacheINS_20SizeClassAllocator32INS_4AP32EEEE6RefillEPNS4_8PerClassEPS3_m+0xa0>
  403fb4:	48 83 f9 07          	cmp    $0x7,%rcx
  403fb8:	0f 82 28 01 00 00    	jb     4040e6 <_ZN11__sanitizer30SizeClassAllocator32LocalCacheINS_20SizeClassAllocator32INS_4AP32EEEE6RefillEPNS4_8PerClassEPS3_m+0x1e6>
  403fbe:	66 90                	xchg   %ax,%ax
  403fc0:	48 8b 4c d0 10       	mov    0x10(%rax,%rdx,8),%rcx
  403fc5:	48 89 4c d3 20       	mov    %rcx,0x20(%rbx,%rdx,8)
  403fca:	48 8b 4c d0 18       	mov    0x18(%rax,%rdx,8),%rcx
  403fcf:	48 89 4c d3 28       	mov    %rcx,0x28(%rbx,%rdx,8)
  403fd4:	48 8b 4c d0 20       	mov    0x20(%rax,%rdx,8),%rcx
  403fd9:	48 89 4c d3 30       	mov    %rcx,0x30(%rbx,%rdx,8)
  403fde:	48 8b 4c d0 28       	mov    0x28(%rax,%rdx,8),%rcx
  403fe3:	48 89 4c d3 38       	mov    %rcx,0x38(%rbx,%rdx,8)
  403fe8:	48 8b 4c d0 30       	mov    0x30(%rax,%rdx,8),%rcx
  403fed:	48 89 4c d3 40       	mov    %rcx,0x40(%rbx,%rdx,8)
  403ff2:	48 8b 4c d0 38       	mov    0x38(%rax,%rdx,8),%rcx
  403ff7:	48 89 4c d3 48       	mov    %rcx,0x48(%rbx,%rdx,8)
  403ffc:	48 8b 4c d0 40       	mov    0x40(%rax,%rdx,8),%rcx
  404001:	48 89 4c d3 50       	mov    %rcx,0x50(%rbx,%rdx,8)
  404006:	48 8b 4c d0 48       	mov    0x48(%rax,%rdx,8),%rcx
  40400b:	48 89 4c d3 58       	mov    %rcx,0x58(%rbx,%rdx,8)
  404010:	48 83 c2 08          	add    $0x8,%rdx
  404014:	49 39 d0             	cmp    %rdx,%r8
  404017:	75 a7                	jne    403fc0 <_ZN11__sanitizer30SizeClassAllocator32LocalCacheINS_20SizeClassAllocator32INS_4AP32EEEE6RefillEPNS4_8PerClassEPS3_m+0xc0>
  404019:	e9 c8 00 00 00       	jmpq   4040e6 <_ZN11__sanitizer30SizeClassAllocator32LocalCacheINS_20SizeClassAllocator32INS_4AP32EEEE6RefillEPNS4_8PerClassEPS3_m+0x1e6>
  40401e:	4c 89 c2             	mov    %r8,%rdx
  404021:	48 83 e2 fc          	and    $0xfffffffffffffffc,%rdx
  404025:	48 8d 7a fc          	lea    -0x4(%rdx),%rdi
  404029:	48 89 fe             	mov    %rdi,%rsi
  40402c:	48 c1 ee 02          	shr    $0x2,%rsi
  404030:	48 83 c6 01          	add    $0x1,%rsi
  404034:	89 f1                	mov    %esi,%ecx
  404036:	83 e1 03             	and    $0x3,%ecx
  404039:	48 83 ff 0c          	cmp    $0xc,%rdi
  40403d:	73 04                	jae    404043 <_ZN11__sanitizer30SizeClassAllocator32LocalCacheINS_20SizeClassAllocator32INS_4AP32EEEE6RefillEPNS4_8PerClassEPS3_m+0x143>
  40403f:	31 ff                	xor    %edi,%edi
  404041:	eb 70                	jmp    4040b3 <_ZN11__sanitizer30SizeClassAllocator32LocalCacheINS_20SizeClassAllocator32INS_4AP32EEEE6RefillEPNS4_8PerClassEPS3_m+0x1b3>
  404043:	48 29 ce             	sub    %rcx,%rsi
  404046:	31 ff                	xor    %edi,%edi
  404048:	0f 1f 84 00 00 00 00 	nopl   0x0(%rax,%rax,1)
  40404f:	00 
  404050:	0f 10 44 f8 10       	movups 0x10(%rax,%rdi,8),%xmm0
  404055:	0f 10 4c f8 20       	movups 0x20(%rax,%rdi,8),%xmm1
  40405a:	0f 11 44 fb 20       	movups %xmm0,0x20(%rbx,%rdi,8)
  40405f:	0f 11 4c fb 30       	movups %xmm1,0x30(%rbx,%rdi,8)
  404064:	0f 10 44 f8 30       	movups 0x30(%rax,%rdi,8),%xmm0
  404069:	0f 10 4c f8 40       	movups 0x40(%rax,%rdi,8),%xmm1
  40406e:	0f 11 44 fb 40       	movups %xmm0,0x40(%rbx,%rdi,8)
  404073:	0f 11 4c fb 50       	movups %xmm1,0x50(%rbx,%rdi,8)
  404078:	0f 10 44 f8 50       	movups 0x50(%rax,%rdi,8),%xmm0
  40407d:	0f 10 4c f8 60       	movups 0x60(%rax,%rdi,8),%xmm1
  404082:	0f 11 44 fb 60       	movups %xmm0,0x60(%rbx,%rdi,8)
  404087:	0f 11 4c fb 70       	movups %xmm1,0x70(%rbx,%rdi,8)
  40408c:	0f 10 44 f8 70       	movups 0x70(%rax,%rdi,8),%xmm0
  404091:	0f 10 8c f8 80 00 00 	movups 0x80(%rax,%rdi,8),%xmm1
  404098:	00 
  404099:	0f 11 84 fb 80 00 00 	movups %xmm0,0x80(%rbx,%rdi,8)
  4040a0:	00 
  4040a1:	0f 11 8c fb 90 00 00 	movups %xmm1,0x90(%rbx,%rdi,8)
  4040a8:	00 
  4040a9:	48 83 c7 10          	add    $0x10,%rdi
  4040ad:	48 83 c6 fc          	add    $0xfffffffffffffffc,%rsi
  4040b1:	75 9d                	jne    404050 <_ZN11__sanitizer30SizeClassAllocator32LocalCacheINS_20SizeClassAllocator32INS_4AP32EEEE6RefillEPNS4_8PerClassEPS3_m+0x150>
  4040b3:	48 85 c9             	test   %rcx,%rcx
  4040b6:	74 25                	je     4040dd <_ZN11__sanitizer30SizeClassAllocator32LocalCacheINS_20SizeClassAllocator32INS_4AP32EEEE6RefillEPNS4_8PerClassEPS3_m+0x1dd>
  4040b8:	48 c1 e7 03          	shl    $0x3,%rdi
  4040bc:	48 f7 d9             	neg    %rcx
  4040bf:	90                   	nop
  4040c0:	0f 10 44 38 10       	movups 0x10(%rax,%rdi,1),%xmm0
  4040c5:	0f 10 4c 38 20       	movups 0x20(%rax,%rdi,1),%xmm1
  4040ca:	0f 11 44 3b 20       	movups %xmm0,0x20(%rbx,%rdi,1)
  4040cf:	0f 11 4c 3b 30       	movups %xmm1,0x30(%rbx,%rdi,1)
  4040d4:	48 83 c7 20          	add    $0x20,%rdi
  4040d8:	48 ff c1             	inc    %rcx
  4040db:	75 e3                	jne    4040c0 <_ZN11__sanitizer30SizeClassAllocator32LocalCacheINS_20SizeClassAllocator32INS_4AP32EEEE6RefillEPNS4_8PerClassEPS3_m+0x1c0>
  4040dd:	49 39 d0             	cmp    %rdx,%r8
  4040e0:	0f 85 99 fe ff ff    	jne    403f7f <_ZN11__sanitizer30SizeClassAllocator32LocalCacheINS_20SizeClassAllocator32INS_4AP32EEEE6RefillEPNS4_8PerClassEPS3_m+0x7f>
  4040e6:	4c 89 03             	mov    %r8,(%rbx)
  4040e9:	49 c1 e4 0a          	shl    $0xa,%r12
  4040ed:	4b 8b 54 27 18       	mov    0x18(%r15,%r12,1),%rdx
  4040f2:	b3 01                	mov    $0x1,%bl
  4040f4:	48 85 d2             	test   %rdx,%rdx
  4040f7:	74 0e                	je     404107 <_ZN11__sanitizer30SizeClassAllocator32LocalCacheINS_20SizeClassAllocator32INS_4AP32EEEE6RefillEPNS4_8PerClassEPS3_m+0x207>
  4040f9:	4c 89 ff             	mov    %r15,%rdi
  4040fc:	4c 89 f6             	mov    %r14,%rsi
  4040ff:	48 89 c1             	mov    %rax,%rcx
  404102:	e8 29 07 00 00       	callq  404830 <_ZN11__sanitizer30SizeClassAllocator32LocalCacheINS_20SizeClassAllocator32INS_4AP32EEEE10DeallocateEPS3_mPv>
  404107:	89 d8                	mov    %ebx,%eax
  404109:	48 83 c4 08          	add    $0x8,%rsp
  40410d:	5b                   	pop    %rbx
  40410e:	41 5c                	pop    %r12
  404110:	41 5e                	pop    %r14
  404112:	41 5f                	pop    %r15
  404114:	c3                   	retq   
  404115:	49 8d b7 18 04 00 00 	lea    0x418(%r15),%rsi
  40411c:	41 b8 10 00 00 00    	mov    $0x10,%r8d
  404122:	48 c7 c7 f1 ff ff ff 	mov    $0xfffffffffffffff1,%rdi
  404129:	eb 1c                	jmp    404147 <_ZN11__sanitizer30SizeClassAllocator32LocalCacheINS_20SizeClassAllocator32INS_4AP32EEEE6RefillEPNS4_8PerClassEPS3_m+0x247>
  40412b:	48 89 06             	mov    %rax,(%rsi)
  40412e:	49 83 c0 10          	add    $0x10,%r8
  404132:	48 83 c7 01          	add    $0x1,%rdi
  404136:	48 81 c6 00 04 00 00 	add    $0x400,%rsi
  40413d:	48 83 ff 26          	cmp    $0x26,%rdi
  404141:	0f 84 d8 fd ff ff    	je     403f1f <_ZN11__sanitizer30SizeClassAllocator32LocalCacheINS_20SizeClassAllocator32INS_4AP32EEEE6RefillEPNS4_8PerClassEPS3_m+0x1f>
  404147:	b9 00 02 00 00       	mov    $0x200,%ecx
  40414c:	48 83 ff 25          	cmp    $0x25,%rdi
  404150:	74 2f                	je     404181 <_ZN11__sanitizer30SizeClassAllocator32LocalCacheINS_20SizeClassAllocator32INS_4AP32EEEE6RefillEPNS4_8PerClassEPS3_m+0x281>
  404152:	48 8d 47 10          	lea    0x10(%rdi),%rax
  404156:	4c 89 c1             	mov    %r8,%rcx
  404159:	48 83 f8 11          	cmp    $0x11,%rax
  40415d:	72 22                	jb     404181 <_ZN11__sanitizer30SizeClassAllocator32LocalCacheINS_20SizeClassAllocator32INS_4AP32EEEE6RefillEPNS4_8PerClassEPS3_m+0x281>
  40415f:	48 89 f9             	mov    %rdi,%rcx
  404162:	48 c1 e9 02          	shr    $0x2,%rcx
  404166:	b8 00 01 00 00       	mov    $0x100,%eax
  40416b:	48 d3 e0             	shl    %cl,%rax
  40416e:	48 89 c2             	mov    %rax,%rdx
  404171:	48 c1 ea 02          	shr    $0x2,%rdx
  404175:	89 f9                	mov    %edi,%ecx
  404177:	83 e1 03             	and    $0x3,%ecx
  40417a:	48 0f af ca          	imul   %rdx,%rcx
  40417e:	48 01 c1             	add    %rax,%rcx
  404181:	b8 00 40 00 00       	mov    $0x4000,%eax
  404186:	31 d2                	xor    %edx,%edx
  404188:	f7 f1                	div    %ecx
  40418a:	83 f8 40             	cmp    $0x40,%eax
  40418d:	73 3e                	jae    4041cd <_ZN11__sanitizer30SizeClassAllocator32LocalCacheINS_20SizeClassAllocator32INS_4AP32EEEE6RefillEPNS4_8PerClassEPS3_m+0x2cd>
  40418f:	ba 01 00 00 00       	mov    $0x1,%edx
  404194:	48 85 c0             	test   %rax,%rax
  404197:	75 43                	jne    4041dc <_ZN11__sanitizer30SizeClassAllocator32LocalCacheINS_20SizeClassAllocator32INS_4AP32EEEE6RefillEPNS4_8PerClassEPS3_m+0x2dc>
  404199:	48 83 fa 3e          	cmp    $0x3e,%rdx
  40419d:	72 05                	jb     4041a4 <_ZN11__sanitizer30SizeClassAllocator32LocalCacheINS_20SizeClassAllocator32INS_4AP32EEEE6RefillEPNS4_8PerClassEPS3_m+0x2a4>
  40419f:	ba 3e 00 00 00       	mov    $0x3e,%edx
  4041a4:	48 8d 04 12          	lea    (%rdx,%rdx,1),%rax
  4041a8:	48 89 46 f0          	mov    %rax,-0x10(%rsi)
  4041ac:	48 89 4e f8          	mov    %rcx,-0x8(%rsi)
  4041b0:	48 8d 14 d5 10 00 00 	lea    0x10(,%rdx,8),%rdx
  4041b7:	00 
  4041b8:	b8 14 00 00 00       	mov    $0x14,%eax
  4041bd:	48 39 d1             	cmp    %rdx,%rcx
  4041c0:	0f 82 65 ff ff ff    	jb     40412b <_ZN11__sanitizer30SizeClassAllocator32LocalCacheINS_20SizeClassAllocator32INS_4AP32EEEE6RefillEPNS4_8PerClassEPS3_m+0x22b>
  4041c6:	31 c0                	xor    %eax,%eax
  4041c8:	e9 5e ff ff ff       	jmpq   40412b <_ZN11__sanitizer30SizeClassAllocator32LocalCacheINS_20SizeClassAllocator32INS_4AP32EEEE6RefillEPNS4_8PerClassEPS3_m+0x22b>
  4041cd:	b8 40 00 00 00       	mov    $0x40,%eax
  4041d2:	ba 01 00 00 00       	mov    $0x1,%edx
  4041d7:	48 85 c0             	test   %rax,%rax
  4041da:	74 bd                	je     404199 <_ZN11__sanitizer30SizeClassAllocator32LocalCacheINS_20SizeClassAllocator32INS_4AP32EEEE6RefillEPNS4_8PerClassEPS3_m+0x299>
  4041dc:	48 89 c2             	mov    %rax,%rdx
  4041df:	48 83 fa 3e          	cmp    $0x3e,%rdx
  4041e3:	73 ba                	jae    40419f <_ZN11__sanitizer30SizeClassAllocator32LocalCacheINS_20SizeClassAllocator32INS_4AP32EEEE6RefillEPNS4_8PerClassEPS3_m+0x29f>
  4041e5:	eb bd                	jmp    4041a4 <_ZN11__sanitizer30SizeClassAllocator32LocalCacheINS_20SizeClassAllocator32INS_4AP32EEEE6RefillEPNS4_8PerClassEPS3_m+0x2a4>
  4041e7:	31 db                	xor    %ebx,%ebx
  4041e9:	e9 19 ff ff ff       	jmpq   404107 <_ZN11__sanitizer30SizeClassAllocator32LocalCacheINS_20SizeClassAllocator32INS_4AP32EEEE6RefillEPNS4_8PerClassEPS3_m+0x207>
  4041ee:	48 8d 3d 71 01 02 00 	lea    0x20171(%rip),%rdi        # 424366 <_IO_stdin_used+0x366>
  4041f5:	48 8d 15 1d 02 02 00 	lea    0x2021d(%rip),%rdx        # 424419 <_IO_stdin_used+0x419>
  4041fc:	be f0 00 00 00       	mov    $0xf0,%esi
  404201:	31 c9                	xor    %ecx,%ecx
  404203:	45 31 c0             	xor    %r8d,%r8d
  404206:	e8 55 f6 00 00       	callq  413860 <_ZN11__sanitizer11CheckFailedEPKciS1_yy>
  40420b:	0f 1f 44 00 00       	nopl   0x0(%rax,%rax,1)

0000000000404210 <_ZN11__sanitizer20SizeClassAllocator32INS_4AP32EE13AllocateBatchEPNS_14AllocatorStatsEPNS_30SizeClassAllocator32LocalCacheIS2_EEm>:
  404210:	55                   	push   %rbp
  404211:	41 57                	push   %r15
  404213:	41 56                	push   %r14
  404215:	41 55                	push   %r13
  404217:	41 54                	push   %r12
  404219:	53                   	push   %rbx
  40421a:	50                   	push   %rax
  40421b:	49 89 cf             	mov    %rcx,%r15
  40421e:	49 89 f5             	mov    %rsi,%r13
  404221:	48 89 fb             	mov    %rdi,%rbx
  404224:	48 89 cd             	mov    %rcx,%rbp
  404227:	48 c1 e5 06          	shl    $0x6,%rbp
  40422b:	4c 8d 34 2f          	lea    (%rdi,%rbp,1),%r14
  40422f:	49 81 c6 40 00 04 00 	add    $0x40040,%r14
  404236:	b0 01                	mov    $0x1,%al
  404238:	86 84 2f 40 00 04 00 	xchg   %al,0x40040(%rdi,%rbp,1)
  40423f:	84 c0                	test   %al,%al
  404241:	74 0e                	je     404251 <_ZN11__sanitizer20SizeClassAllocator32INS_4AP32EE13AllocateBatchEPNS_14AllocatorStatsEPNS_30SizeClassAllocator32LocalCacheIS2_EEm+0x41>
  404243:	4c 89 f7             	mov    %r14,%rdi
  404246:	49 89 d4             	mov    %rdx,%r12
  404249:	e8 12 11 00 00       	callq  405360 <_ZN11__sanitizer15StaticSpinMutex8LockSlowEv>
  40424e:	4c 89 e2             	mov    %r12,%rdx
  404251:	4c 8d 24 2b          	lea    (%rbx,%rbp,1),%r12
  404255:	49 81 c4 48 00 04 00 	add    $0x40048,%r12
  40425c:	48 8b 8c 2b 48 00 04 	mov    0x40048(%rbx,%rbp,1),%rcx
  404263:	00 
  404264:	48 85 c9             	test   %rcx,%rcx
  404267:	75 1e                	jne    404287 <_ZN11__sanitizer20SizeClassAllocator32INS_4AP32EE13AllocateBatchEPNS_14AllocatorStatsEPNS_30SizeClassAllocator32LocalCacheIS2_EEm+0x77>
  404269:	48 89 df             	mov    %rbx,%rdi
  40426c:	4c 89 ee             	mov    %r13,%rsi
  40426f:	4c 89 f1             	mov    %r14,%rcx
  404272:	4d 89 f8             	mov    %r15,%r8
  404275:	e8 76 00 00 00       	callq  4042f0 <_ZN11__sanitizer20SizeClassAllocator32INS_4AP32EE16PopulateFreeListEPNS_14AllocatorStatsEPNS_30SizeClassAllocator32LocalCacheIS2_EEPNS2_13SizeClassInfoEm>
  40427a:	84 c0                	test   %al,%al
  40427c:	74 48                	je     4042c6 <_ZN11__sanitizer20SizeClassAllocator32INS_4AP32EE13AllocateBatchEPNS_14AllocatorStatsEPNS_30SizeClassAllocator32LocalCacheIS2_EEm+0xb6>
  40427e:	49 8b 0c 24          	mov    (%r12),%rcx
  404282:	48 85 c9             	test   %rcx,%rcx
  404285:	74 43                	je     4042ca <_ZN11__sanitizer20SizeClassAllocator32INS_4AP32EE13AllocateBatchEPNS_14AllocatorStatsEPNS_30SizeClassAllocator32LocalCacheIS2_EEm+0xba>
  404287:	48 8b 84 2b 50 00 04 	mov    0x40050(%rbx,%rbp,1),%rax
  40428e:	00 
  40428f:	48 8b 10             	mov    (%rax),%rdx
  404292:	48 89 94 2b 50 00 04 	mov    %rdx,0x40050(%rbx,%rbp,1)
  404299:	00 
  40429a:	48 85 d2             	test   %rdx,%rdx
  40429d:	75 0c                	jne    4042ab <_ZN11__sanitizer20SizeClassAllocator32INS_4AP32EE13AllocateBatchEPNS_14AllocatorStatsEPNS_30SizeClassAllocator32LocalCacheIS2_EEm+0x9b>
  40429f:	48 c7 84 2b 58 00 04 	movq   $0x0,0x40058(%rbx,%rbp,1)
  4042a6:	00 00 00 00 00 
  4042ab:	48 83 c1 ff          	add    $0xffffffffffffffff,%rcx
  4042af:	49 89 0c 24          	mov    %rcx,(%r12)
  4042b3:	41 c6 06 00          	movb   $0x0,(%r14)
  4042b7:	48 83 c4 08          	add    $0x8,%rsp
  4042bb:	5b                   	pop    %rbx
  4042bc:	41 5c                	pop    %r12
  4042be:	41 5d                	pop    %r13
  4042c0:	41 5e                	pop    %r14
  4042c2:	41 5f                	pop    %r15
  4042c4:	5d                   	pop    %rbp
  4042c5:	c3                   	retq   
  4042c6:	31 c0                	xor    %eax,%eax
  4042c8:	eb e9                	jmp    4042b3 <_ZN11__sanitizer20SizeClassAllocator32INS_4AP32EE13AllocateBatchEPNS_14AllocatorStatsEPNS_30SizeClassAllocator32LocalCacheIS2_EEm+0xa3>
  4042ca:	48 8d 3d 48 03 02 00 	lea    0x20348(%rip),%rdi        # 424619 <_IO_stdin_used+0x619>
  4042d1:	48 8d 15 ac 03 02 00 	lea    0x203ac(%rip),%rdx        # 424684 <_IO_stdin_used+0x684>
  4042d8:	be 41 00 00 00       	mov    $0x41,%esi
  4042dd:	31 c9                	xor    %ecx,%ecx
  4042df:	45 31 c0             	xor    %r8d,%r8d
  4042e2:	e8 79 f5 00 00       	callq  413860 <_ZN11__sanitizer11CheckFailedEPKciS1_yy>
  4042e7:	66 0f 1f 84 00 00 00 	nopw   0x0(%rax,%rax,1)
  4042ee:	00 00 

00000000004042f0 <_ZN11__sanitizer20SizeClassAllocator32INS_4AP32EE16PopulateFreeListEPNS_14AllocatorStatsEPNS_30SizeClassAllocator32LocalCacheIS2_EEPNS2_13SizeClassInfoEm>:
  4042f0:	55                   	push   %rbp
  4042f1:	41 57                	push   %r15
  4042f3:	41 56                	push   %r14
  4042f5:	41 55                	push   %r13
  4042f7:	41 54                	push   %r12
  4042f9:	53                   	push   %rbx
  4042fa:	48 81 ec b8 01 00 00 	sub    $0x1b8,%rsp
  404301:	4d 89 c5             	mov    %r8,%r13
  404304:	48 89 cb             	mov    %rcx,%rbx
  404307:	48 89 54 24 10       	mov    %rdx,0x10(%rsp)
  40430c:	48 89 fd             	mov    %rdi,%rbp
  40430f:	4c 89 c2             	mov    %r8,%rdx
  404312:	e8 d9 03 00 00       	callq  4046f0 <_ZN11__sanitizer20SizeClassAllocator32INS_4AP32EE14AllocateRegionEPNS_14AllocatorStatsEm>
  404317:	48 85 c0             	test   %rax,%rax
  40431a:	0f 84 7c 03 00 00    	je     40469c <_ZN11__sanitizer20SizeClassAllocator32INS_4AP32EE16PopulateFreeListEPNS_14AllocatorStatsEPNS_30SizeClassAllocator32LocalCacheIS2_EEPNS2_13SizeClassInfoEm+0x3ac>
  404320:	49 89 c1             	mov    %rax,%r9
  404323:	41 ba 00 02 00 00    	mov    $0x200,%r10d
  404329:	49 83 fd 35          	cmp    $0x35,%r13
  40432d:	48 8b 7c 24 10       	mov    0x10(%rsp),%rdi
  404332:	74 3d                	je     404371 <_ZN11__sanitizer20SizeClassAllocator32INS_4AP32EE16PopulateFreeListEPNS_14AllocatorStatsEPNS_30SizeClassAllocator32LocalCacheIS2_EEPNS2_13SizeClassInfoEm+0x81>
  404334:	49 83 fd 10          	cmp    $0x10,%r13
  404338:	77 09                	ja     404343 <_ZN11__sanitizer20SizeClassAllocator32INS_4AP32EE16PopulateFreeListEPNS_14AllocatorStatsEPNS_30SizeClassAllocator32LocalCacheIS2_EEPNS2_13SizeClassInfoEm+0x53>
  40433a:	4d 89 ea             	mov    %r13,%r10
  40433d:	49 c1 e2 04          	shl    $0x4,%r10
  404341:	eb 25                	jmp    404368 <_ZN11__sanitizer20SizeClassAllocator32INS_4AP32EE16PopulateFreeListEPNS_14AllocatorStatsEPNS_30SizeClassAllocator32LocalCacheIS2_EEPNS2_13SizeClassInfoEm+0x78>
  404343:	4d 8d 55 f0          	lea    -0x10(%r13),%r10
  404347:	4c 89 d1             	mov    %r10,%rcx
  40434a:	48 c1 e9 02          	shr    $0x2,%rcx
  40434e:	b8 00 01 00 00       	mov    $0x100,%eax
  404353:	48 d3 e0             	shl    %cl,%rax
  404356:	48 89 c1             	mov    %rax,%rcx
  404359:	48 c1 e9 02          	shr    $0x2,%rcx
  40435d:	41 83 e2 03          	and    $0x3,%r10d
  404361:	4c 0f af d1          	imul   %rcx,%r10
  404365:	49 01 c2             	add    %rax,%r10
  404368:	4d 85 d2             	test   %r10,%r10
  40436b:	0f 84 2f 03 00 00    	je     4046a0 <_ZN11__sanitizer20SizeClassAllocator32INS_4AP32EE16PopulateFreeListEPNS_14AllocatorStatsEPNS_30SizeClassAllocator32LocalCacheIS2_EEPNS2_13SizeClassInfoEm+0x3b0>
  404371:	b8 00 40 00 00       	mov    $0x4000,%eax
  404376:	31 d2                	xor    %edx,%edx
  404378:	41 f7 f2             	div    %r10d
  40437b:	83 f8 40             	cmp    $0x40,%eax
  40437e:	b9 40 00 00 00       	mov    $0x40,%ecx
  404383:	48 0f 42 c8          	cmovb  %rax,%rcx
  404387:	48 85 c9             	test   %rcx,%rcx
  40438a:	b8 01 00 00 00       	mov    $0x1,%eax
  40438f:	48 0f 45 c1          	cmovne %rcx,%rax
  404393:	48 83 f8 3e          	cmp    $0x3e,%rax
  404397:	41 bc 3e 00 00 00    	mov    $0x3e,%r12d
  40439d:	4c 0f 42 e0          	cmovb  %rax,%r12
  4043a1:	b8 00 00 10 00       	mov    $0x100000,%eax
  4043a6:	31 d2                	xor    %edx,%edx
  4043a8:	49 f7 f2             	div    %r10
  4043ab:	48 f7 da             	neg    %rdx
  4043ae:	4d 8d 1c 11          	lea    (%r9,%rdx,1),%r11
  4043b2:	49 81 c3 00 00 10 00 	add    $0x100000,%r11
  4043b9:	b0 01                	mov    $0x1,%al
  4043bb:	4d 39 d9             	cmp    %r11,%r9
  4043be:	0f 83 c6 02 00 00    	jae    40468a <_ZN11__sanitizer20SizeClassAllocator32INS_4AP32EE16PopulateFreeListEPNS_14AllocatorStatsEPNS_30SizeClassAllocator32LocalCacheIS2_EEPNS2_13SizeClassInfoEm+0x39a>
  4043c4:	48 89 6c 24 18       	mov    %rbp,0x18(%rsp)
  4043c9:	49 c1 e5 0a          	shl    $0xa,%r13
  4043cd:	4e 8d 04 2f          	lea    (%rdi,%r13,1),%r8
  4043d1:	49 83 c0 18          	add    $0x18,%r8
  4043d5:	31 ed                	xor    %ebp,%ebp
  4043d7:	31 f6                	xor    %esi,%esi
  4043d9:	eb 13                	jmp    4043ee <_ZN11__sanitizer20SizeClassAllocator32INS_4AP32EE16PopulateFreeListEPNS_14AllocatorStatsEPNS_30SizeClassAllocator32LocalCacheIS2_EEPNS2_13SizeClassInfoEm+0xfe>
  4043db:	0f 1f 44 00 00       	nopl   0x0(%rax,%rax,1)
  4043e0:	31 ed                	xor    %ebp,%ebp
  4043e2:	4d 01 d1             	add    %r10,%r9
  4043e5:	4d 39 d9             	cmp    %r11,%r9
  4043e8:	0f 83 3b 01 00 00    	jae    404529 <_ZN11__sanitizer20SizeClassAllocator32INS_4AP32EE16PopulateFreeListEPNS_14AllocatorStatsEPNS_30SizeClassAllocator32LocalCacheIS2_EEPNS2_13SizeClassInfoEm+0x239>
  4043ee:	4c 89 4c ec 30       	mov    %r9,0x30(%rsp,%rbp,8)
  4043f3:	48 83 c5 01          	add    $0x1,%rbp
  4043f7:	48 83 fd 30          	cmp    $0x30,%rbp
  4043fb:	75 e5                	jne    4043e2 <_ZN11__sanitizer20SizeClassAllocator32INS_4AP32EE16PopulateFreeListEPNS_14AllocatorStatsEPNS_30SizeClassAllocator32LocalCacheIS2_EEPNS2_13SizeClassInfoEm+0xf2>
  4043fd:	49 c7 c5 ff ff ff ff 	mov    $0xffffffffffffffff,%r13
  404404:	eb 29                	jmp    40442f <_ZN11__sanitizer20SizeClassAllocator32INS_4AP32EE16PopulateFreeListEPNS_14AllocatorStatsEPNS_30SizeClassAllocator32LocalCacheIS2_EEPNS2_13SizeClassInfoEm+0x13f>
  404406:	66 2e 0f 1f 84 00 00 	nopw   %cs:0x0(%rax,%rax,1)
  40440d:	00 00 00 
  404410:	48 8b 53 18          	mov    0x18(%rbx),%rdx
  404414:	48 89 32             	mov    %rsi,(%rdx)
  404417:	48 89 73 18          	mov    %rsi,0x18(%rbx)
  40441b:	48 83 c1 01          	add    $0x1,%rcx
  40441f:	48 89 4b 08          	mov    %rcx,0x8(%rbx)
  404423:	31 f6                	xor    %esi,%esi
  404425:	49 83 c5 01          	add    $0x1,%r13
  404429:	49 83 fd 2f          	cmp    $0x2f,%r13
  40442d:	73 b1                	jae    4043e0 <_ZN11__sanitizer20SizeClassAllocator32INS_4AP32EE16PopulateFreeListEPNS_14AllocatorStatsEPNS_30SizeClassAllocator32LocalCacheIS2_EEPNS2_13SizeClassInfoEm+0xf0>
  40442f:	48 85 f6             	test   %rsi,%rsi
  404432:	74 0c                	je     404440 <_ZN11__sanitizer20SizeClassAllocator32INS_4AP32EE16PopulateFreeListEPNS_14AllocatorStatsEPNS_30SizeClassAllocator32LocalCacheIS2_EEPNS2_13SizeClassInfoEm+0x150>
  404434:	4e 8b 7c ec 38       	mov    0x38(%rsp,%r13,8),%r15
  404439:	48 8b 4e 08          	mov    0x8(%rsi),%rcx
  40443d:	eb 63                	jmp    4044a2 <_ZN11__sanitizer20SizeClassAllocator32INS_4AP32EE16PopulateFreeListEPNS_14AllocatorStatsEPNS_30SizeClassAllocator32LocalCacheIS2_EEPNS2_13SizeClassInfoEm+0x1b2>
  40443f:	90                   	nop
  404440:	4e 8b 7c ec 38       	mov    0x38(%rsp,%r13,8),%r15
  404445:	49 8b 08             	mov    (%r8),%rcx
  404448:	4c 89 fe             	mov    %r15,%rsi
  40444b:	48 85 c9             	test   %rcx,%rcx
  40444e:	74 3f                	je     40448f <_ZN11__sanitizer20SizeClassAllocator32INS_4AP32EE16PopulateFreeListEPNS_14AllocatorStatsEPNS_30SizeClassAllocator32LocalCacheIS2_EEPNS2_13SizeClassInfoEm+0x19f>
  404450:	48 83 f9 36          	cmp    $0x36,%rcx
  404454:	0f 83 51 02 00 00    	jae    4046ab <_ZN11__sanitizer20SizeClassAllocator32INS_4AP32EE16PopulateFreeListEPNS_14AllocatorStatsEPNS_30SizeClassAllocator32LocalCacheIS2_EEPNS2_13SizeClassInfoEm+0x3bb>
  40445a:	49 89 ce             	mov    %rcx,%r14
  40445d:	49 c1 e6 0a          	shl    $0xa,%r14
  404461:	4a 8d 2c 37          	lea    (%rdi,%r14,1),%rbp
  404465:	4a 8b 14 37          	mov    (%rdi,%r14,1),%rdx
  404469:	48 85 d2             	test   %rdx,%rdx
  40446c:	74 70                	je     4044de <_ZN11__sanitizer20SizeClassAllocator32INS_4AP32EE16PopulateFreeListEPNS_14AllocatorStatsEPNS_30SizeClassAllocator32LocalCacheIS2_EEPNS2_13SizeClassInfoEm+0x1ee>
  40446e:	48 8d 4a ff          	lea    -0x1(%rdx),%rcx
  404472:	48 89 4d 00          	mov    %rcx,0x0(%rbp)
  404476:	48 8b 4c d5 10       	mov    0x10(%rbp,%rdx,8),%rcx
  40447b:	48 8b 74 d5 18       	mov    0x18(%rbp,%rdx,8),%rsi
  404480:	0f 18 01             	prefetchnta (%rcx)
  404483:	4a 8b 4c 37 10       	mov    0x10(%rdi,%r14,1),%rcx
  404488:	48 01 8f 10 d8 00 00 	add    %rcx,0xd810(%rdi)
  40448f:	48 85 f6             	test   %rsi,%rsi
  404492:	0f 84 04 02 00 00    	je     40469c <_ZN11__sanitizer20SizeClassAllocator32INS_4AP32EE16PopulateFreeListEPNS_14AllocatorStatsEPNS_30SizeClassAllocator32LocalCacheIS2_EEPNS2_13SizeClassInfoEm+0x3ac>
  404498:	48 c7 46 08 00 00 00 	movq   $0x0,0x8(%rsi)
  40449f:	00 
  4044a0:	31 c9                	xor    %ecx,%ecx
  4044a2:	48 8d 51 01          	lea    0x1(%rcx),%rdx
  4044a6:	48 89 56 08          	mov    %rdx,0x8(%rsi)
  4044aa:	4c 89 7c ce 10       	mov    %r15,0x10(%rsi,%rcx,8)
  4044af:	4c 39 e2             	cmp    %r12,%rdx
  4044b2:	0f 85 6d ff ff ff    	jne    404425 <_ZN11__sanitizer20SizeClassAllocator32INS_4AP32EE16PopulateFreeListEPNS_14AllocatorStatsEPNS_30SizeClassAllocator32LocalCacheIS2_EEPNS2_13SizeClassInfoEm+0x135>
  4044b8:	48 8b 4b 08          	mov    0x8(%rbx),%rcx
  4044bc:	48 c7 06 00 00 00 00 	movq   $0x0,(%rsi)
  4044c3:	48 85 c9             	test   %rcx,%rcx
  4044c6:	0f 85 44 ff ff ff    	jne    404410 <_ZN11__sanitizer20SizeClassAllocator32INS_4AP32EE16PopulateFreeListEPNS_14AllocatorStatsEPNS_30SizeClassAllocator32LocalCacheIS2_EEPNS2_13SizeClassInfoEm+0x120>
  4044cc:	48 89 73 18          	mov    %rsi,0x18(%rbx)
  4044d0:	48 89 73 10          	mov    %rsi,0x10(%rbx)
  4044d4:	b9 01 00 00 00       	mov    $0x1,%ecx
  4044d9:	e9 41 ff ff ff       	jmpq   40441f <_ZN11__sanitizer20SizeClassAllocator32INS_4AP32EE16PopulateFreeListEPNS_14AllocatorStatsEPNS_30SizeClassAllocator32LocalCacheIS2_EEPNS2_13SizeClassInfoEm+0x12f>
  4044de:	4c 89 5c 24 20       	mov    %r11,0x20(%rsp)
  4044e3:	4c 89 54 24 28       	mov    %r10,0x28(%rsp)
  4044e8:	4c 89 0c 24          	mov    %r9,(%rsp)
  4044ec:	4c 89 44 24 08       	mov    %r8,0x8(%rsp)
  4044f1:	48 89 ee             	mov    %rbp,%rsi
  4044f4:	48 8b 54 24 18       	mov    0x18(%rsp),%rdx
  4044f9:	e8 02 fa ff ff       	callq  403f00 <_ZN11__sanitizer30SizeClassAllocator32LocalCacheINS_20SizeClassAllocator32INS_4AP32EEEE6RefillEPNS4_8PerClassEPS3_m>
  4044fe:	84 c0                	test   %al,%al
  404500:	0f 84 96 01 00 00    	je     40469c <_ZN11__sanitizer20SizeClassAllocator32INS_4AP32EE16PopulateFreeListEPNS_14AllocatorStatsEPNS_30SizeClassAllocator32LocalCacheIS2_EEPNS2_13SizeClassInfoEm+0x3ac>
  404506:	48 8b 55 00          	mov    0x0(%rbp),%rdx
  40450a:	48 8b 7c 24 10       	mov    0x10(%rsp),%rdi
  40450f:	b0 01                	mov    $0x1,%al
  404511:	4c 8b 44 24 08       	mov    0x8(%rsp),%r8
  404516:	4c 8b 0c 24          	mov    (%rsp),%r9
  40451a:	4c 8b 54 24 28       	mov    0x28(%rsp),%r10
  40451f:	4c 8b 5c 24 20       	mov    0x20(%rsp),%r11
  404524:	e9 45 ff ff ff       	jmpq   40446e <_ZN11__sanitizer20SizeClassAllocator32INS_4AP32EE16PopulateFreeListEPNS_14AllocatorStatsEPNS_30SizeClassAllocator32LocalCacheIS2_EEPNS2_13SizeClassInfoEm+0x17e>
  404529:	48 85 ed             	test   %rbp,%rbp
  40452c:	0f 84 1a 01 00 00    	je     40464c <_ZN11__sanitizer20SizeClassAllocator32INS_4AP32EE16PopulateFreeListEPNS_14AllocatorStatsEPNS_30SizeClassAllocator32LocalCacheIS2_EEPNS2_13SizeClassInfoEm+0x35c>
  404532:	45 31 ff             	xor    %r15d,%r15d
  404535:	eb 2b                	jmp    404562 <_ZN11__sanitizer20SizeClassAllocator32INS_4AP32EE16PopulateFreeListEPNS_14AllocatorStatsEPNS_30SizeClassAllocator32LocalCacheIS2_EEPNS2_13SizeClassInfoEm+0x272>
  404537:	66 0f 1f 84 00 00 00 	nopw   0x0(%rax,%rax,1)
  40453e:	00 00 
  404540:	48 8b 53 18          	mov    0x18(%rbx),%rdx
  404544:	48 89 32             	mov    %rsi,(%rdx)
  404547:	48 89 73 18          	mov    %rsi,0x18(%rbx)
  40454b:	48 83 c1 01          	add    $0x1,%rcx
  40454f:	48 89 4b 08          	mov    %rcx,0x8(%rbx)
  404553:	31 f6                	xor    %esi,%esi
  404555:	49 83 c7 01          	add    $0x1,%r15
  404559:	4c 39 fd             	cmp    %r15,%rbp
  40455c:	0f 84 ea 00 00 00    	je     40464c <_ZN11__sanitizer20SizeClassAllocator32INS_4AP32EE16PopulateFreeListEPNS_14AllocatorStatsEPNS_30SizeClassAllocator32LocalCacheIS2_EEPNS2_13SizeClassInfoEm+0x35c>
  404562:	48 85 f6             	test   %rsi,%rsi
  404565:	74 19                	je     404580 <_ZN11__sanitizer20SizeClassAllocator32INS_4AP32EE16PopulateFreeListEPNS_14AllocatorStatsEPNS_30SizeClassAllocator32LocalCacheIS2_EEPNS2_13SizeClassInfoEm+0x290>
  404567:	4e 8b 6c fc 30       	mov    0x30(%rsp,%r15,8),%r13
  40456c:	48 8b 4e 08          	mov    0x8(%rsi),%rcx
  404570:	eb 6f                	jmp    4045e1 <_ZN11__sanitizer20SizeClassAllocator32INS_4AP32EE16PopulateFreeListEPNS_14AllocatorStatsEPNS_30SizeClassAllocator32LocalCacheIS2_EEPNS2_13SizeClassInfoEm+0x2f1>
  404572:	66 2e 0f 1f 84 00 00 	nopw   %cs:0x0(%rax,%rax,1)
  404579:	00 00 00 
  40457c:	0f 1f 40 00          	nopl   0x0(%rax)
  404580:	4e 8b 6c fc 30       	mov    0x30(%rsp,%r15,8),%r13
  404585:	49 8b 08             	mov    (%r8),%rcx
  404588:	4c 89 ee             	mov    %r13,%rsi
  40458b:	48 85 c9             	test   %rcx,%rcx
  40458e:	74 3e                	je     4045ce <_ZN11__sanitizer20SizeClassAllocator32INS_4AP32EE16PopulateFreeListEPNS_14AllocatorStatsEPNS_30SizeClassAllocator32LocalCacheIS2_EEPNS2_13SizeClassInfoEm+0x2de>
  404590:	48 83 f9 36          	cmp    $0x36,%rcx
  404594:	0f 83 11 01 00 00    	jae    4046ab <_ZN11__sanitizer20SizeClassAllocator32INS_4AP32EE16PopulateFreeListEPNS_14AllocatorStatsEPNS_30SizeClassAllocator32LocalCacheIS2_EEPNS2_13SizeClassInfoEm+0x3bb>
  40459a:	49 89 ce             	mov    %rcx,%r14
  40459d:	49 c1 e6 0a          	shl    $0xa,%r14
  4045a1:	4a 8d 34 37          	lea    (%rdi,%r14,1),%rsi
  4045a5:	4a 8b 14 37          	mov    (%rdi,%r14,1),%rdx
  4045a9:	48 85 d2             	test   %rdx,%rdx
  4045ac:	74 6f                	je     40461d <_ZN11__sanitizer20SizeClassAllocator32INS_4AP32EE16PopulateFreeListEPNS_14AllocatorStatsEPNS_30SizeClassAllocator32LocalCacheIS2_EEPNS2_13SizeClassInfoEm+0x32d>
  4045ae:	48 8d 4a ff          	lea    -0x1(%rdx),%rcx
  4045b2:	48 89 0e             	mov    %rcx,(%rsi)
  4045b5:	48 8b 4c d6 10       	mov    0x10(%rsi,%rdx,8),%rcx
  4045ba:	48 8b 74 d6 18       	mov    0x18(%rsi,%rdx,8),%rsi
  4045bf:	0f 18 01             	prefetchnta (%rcx)
  4045c2:	4a 8b 4c 37 10       	mov    0x10(%rdi,%r14,1),%rcx
  4045c7:	48 01 8f 10 d8 00 00 	add    %rcx,0xd810(%rdi)
  4045ce:	48 85 f6             	test   %rsi,%rsi
  4045d1:	0f 84 c5 00 00 00    	je     40469c <_ZN11__sanitizer20SizeClassAllocator32INS_4AP32EE16PopulateFreeListEPNS_14AllocatorStatsEPNS_30SizeClassAllocator32LocalCacheIS2_EEPNS2_13SizeClassInfoEm+0x3ac>
  4045d7:	48 c7 46 08 00 00 00 	movq   $0x0,0x8(%rsi)
  4045de:	00 
  4045df:	31 c9                	xor    %ecx,%ecx
  4045e1:	48 8d 51 01          	lea    0x1(%rcx),%rdx
  4045e5:	48 89 56 08          	mov    %rdx,0x8(%rsi)
  4045e9:	4c 89 6c ce 10       	mov    %r13,0x10(%rsi,%rcx,8)
  4045ee:	4c 39 e2             	cmp    %r12,%rdx
  4045f1:	0f 85 5e ff ff ff    	jne    404555 <_ZN11__sanitizer20SizeClassAllocator32INS_4AP32EE16PopulateFreeListEPNS_14AllocatorStatsEPNS_30SizeClassAllocator32LocalCacheIS2_EEPNS2_13SizeClassInfoEm+0x265>
  4045f7:	48 8b 4b 08          	mov    0x8(%rbx),%rcx
  4045fb:	48 c7 06 00 00 00 00 	movq   $0x0,(%rsi)
  404602:	48 85 c9             	test   %rcx,%rcx
  404605:	0f 85 35 ff ff ff    	jne    404540 <_ZN11__sanitizer20SizeClassAllocator32INS_4AP32EE16PopulateFreeListEPNS_14AllocatorStatsEPNS_30SizeClassAllocator32LocalCacheIS2_EEPNS2_13SizeClassInfoEm+0x250>
  40460b:	48 89 73 18          	mov    %rsi,0x18(%rbx)
  40460f:	48 89 73 10          	mov    %rsi,0x10(%rbx)
  404613:	b9 01 00 00 00       	mov    $0x1,%ecx
  404618:	e9 32 ff ff ff       	jmpq   40454f <_ZN11__sanitizer20SizeClassAllocator32INS_4AP32EE16PopulateFreeListEPNS_14AllocatorStatsEPNS_30SizeClassAllocator32LocalCacheIS2_EEPNS2_13SizeClassInfoEm+0x25f>
  40461d:	4c 89 44 24 08       	mov    %r8,0x8(%rsp)
  404622:	48 89 34 24          	mov    %rsi,(%rsp)
  404626:	48 8b 54 24 18       	mov    0x18(%rsp),%rdx
  40462b:	e8 d0 f8 ff ff       	callq  403f00 <_ZN11__sanitizer30SizeClassAllocator32LocalCacheINS_20SizeClassAllocator32INS_4AP32EEEE6RefillEPNS4_8PerClassEPS3_m>
  404630:	84 c0                	test   %al,%al
  404632:	74 68                	je     40469c <_ZN11__sanitizer20SizeClassAllocator32INS_4AP32EE16PopulateFreeListEPNS_14AllocatorStatsEPNS_30SizeClassAllocator32LocalCacheIS2_EEPNS2_13SizeClassInfoEm+0x3ac>
  404634:	48 8b 34 24          	mov    (%rsp),%rsi
  404638:	48 8b 16             	mov    (%rsi),%rdx
  40463b:	48 8b 7c 24 10       	mov    0x10(%rsp),%rdi
  404640:	b0 01                	mov    $0x1,%al
  404642:	4c 8b 44 24 08       	mov    0x8(%rsp),%r8
  404647:	e9 62 ff ff ff       	jmpq   4045ae <_ZN11__sanitizer20SizeClassAllocator32INS_4AP32EE16PopulateFreeListEPNS_14AllocatorStatsEPNS_30SizeClassAllocator32LocalCacheIS2_EEPNS2_13SizeClassInfoEm+0x2be>
  40464c:	48 85 f6             	test   %rsi,%rsi
  40464f:	74 39                	je     40468a <_ZN11__sanitizer20SizeClassAllocator32INS_4AP32EE16PopulateFreeListEPNS_14AllocatorStatsEPNS_30SizeClassAllocator32LocalCacheIS2_EEPNS2_13SizeClassInfoEm+0x39a>
  404651:	48 83 7e 08 00       	cmpq   $0x0,0x8(%rsi)
  404656:	74 71                	je     4046c9 <_ZN11__sanitizer20SizeClassAllocator32INS_4AP32EE16PopulateFreeListEPNS_14AllocatorStatsEPNS_30SizeClassAllocator32LocalCacheIS2_EEPNS2_13SizeClassInfoEm+0x3d9>
  404658:	48 8b 4b 08          	mov    0x8(%rbx),%rcx
  40465c:	48 c7 06 00 00 00 00 	movq   $0x0,(%rsi)
  404663:	48 85 c9             	test   %rcx,%rcx
  404666:	74 11                	je     404679 <_ZN11__sanitizer20SizeClassAllocator32INS_4AP32EE16PopulateFreeListEPNS_14AllocatorStatsEPNS_30SizeClassAllocator32LocalCacheIS2_EEPNS2_13SizeClassInfoEm+0x389>
  404668:	48 8b 53 18          	mov    0x18(%rbx),%rdx
  40466c:	48 89 32             	mov    %rsi,(%rdx)
  40466f:	48 89 73 18          	mov    %rsi,0x18(%rbx)
  404673:	48 83 c1 01          	add    $0x1,%rcx
  404677:	eb 0d                	jmp    404686 <_ZN11__sanitizer20SizeClassAllocator32INS_4AP32EE16PopulateFreeListEPNS_14AllocatorStatsEPNS_30SizeClassAllocator32LocalCacheIS2_EEPNS2_13SizeClassInfoEm+0x396>
  404679:	48 89 73 18          	mov    %rsi,0x18(%rbx)
  40467d:	48 89 73 10          	mov    %rsi,0x10(%rbx)
  404681:	b9 01 00 00 00       	mov    $0x1,%ecx
  404686:	48 89 4b 08          	mov    %rcx,0x8(%rbx)
  40468a:	48 81 c4 b8 01 00 00 	add    $0x1b8,%rsp
  404691:	5b                   	pop    %rbx
  404692:	41 5c                	pop    %r12
  404694:	41 5d                	pop    %r13
  404696:	41 5e                	pop    %r14
  404698:	41 5f                	pop    %r15
  40469a:	5d                   	pop    %rbp
  40469b:	c3                   	retq   
  40469c:	31 c0                	xor    %eax,%eax
  40469e:	eb ea                	jmp    40468a <_ZN11__sanitizer20SizeClassAllocator32INS_4AP32EE16PopulateFreeListEPNS_14AllocatorStatsEPNS_30SizeClassAllocator32LocalCacheIS2_EEPNS2_13SizeClassInfoEm+0x39a>
  4046a0:	45 31 d2             	xor    %r10d,%r10d
  4046a3:	45 31 e4             	xor    %r12d,%r12d
  4046a6:	e9 f6 fc ff ff       	jmpq   4043a1 <_ZN11__sanitizer20SizeClassAllocator32INS_4AP32EE16PopulateFreeListEPNS_14AllocatorStatsEPNS_30SizeClassAllocator32LocalCacheIS2_EEPNS2_13SizeClassInfoEm+0xb1>
  4046ab:	48 8d 3d b4 fc 01 00 	lea    0x1fcb4(%rip),%rdi        # 424366 <_IO_stdin_used+0x366>
  4046b2:	48 8d 15 41 fd 01 00 	lea    0x1fd41(%rip),%rdx        # 4243fa <_IO_stdin_used+0x3fa>
  4046b9:	41 b8 36 00 00 00    	mov    $0x36,%r8d
  4046bf:	be 9a 00 00 00       	mov    $0x9a,%esi
  4046c4:	e8 97 f1 00 00       	callq  413860 <_ZN11__sanitizer11CheckFailedEPKciS1_yy>
  4046c9:	48 8d 3d dd fd 01 00 	lea    0x1fddd(%rip),%rdi        # 4244ad <_IO_stdin_used+0x4ad>
  4046d0:	48 8d 15 42 fd 01 00 	lea    0x1fd42(%rip),%rdx        # 424419 <_IO_stdin_used+0x419>
  4046d7:	be 74 01 00 00       	mov    $0x174,%esi
  4046dc:	31 c9                	xor    %ecx,%ecx
  4046de:	45 31 c0             	xor    %r8d,%r8d
  4046e1:	e8 7a f1 00 00       	callq  413860 <_ZN11__sanitizer11CheckFailedEPKciS1_yy>
  4046e6:	66 2e 0f 1f 84 00 00 	nopw   %cs:0x0(%rax,%rax,1)
  4046ed:	00 00 00 

00000000004046f0 <_ZN11__sanitizer20SizeClassAllocator32INS_4AP32EE14AllocateRegionEPNS_14AllocatorStatsEm>:
  4046f0:	55                   	push   %rbp
  4046f1:	41 57                	push   %r15
  4046f3:	41 56                	push   %r14
  4046f5:	41 55                	push   %r13
  4046f7:	41 54                	push   %r12
  4046f9:	53                   	push   %rbx
  4046fa:	50                   	push   %rax
  4046fb:	49 89 d6             	mov    %rdx,%r14
  4046fe:	48 89 f3             	mov    %rsi,%rbx
  404701:	49 89 fc             	mov    %rdi,%r12
  404704:	48 8b 15 65 2a 03 00 	mov    0x32a65(%rip),%rdx        # 437170 <_ZN11__sanitizer20PrimaryAllocatorNameE>
  40470b:	bf 00 00 10 00       	mov    $0x100000,%edi
  404710:	be 00 00 10 00       	mov    $0x100000,%esi
  404715:	e8 a6 a3 00 00       	callq  40eac0 <_ZN11__sanitizer28MmapAlignedOrDieOnFatalErrorEmmPKc>
  40471a:	48 85 c0             	test   %rax,%rax
  40471d:	0f 84 a5 00 00 00    	je     4047c8 <_ZN11__sanitizer20SizeClassAllocator32INS_4AP32EE14AllocateRegionEPNS_14AllocatorStatsEm+0xd8>
  404723:	49 89 c7             	mov    %rax,%r15
  404726:	48 81 43 18 00 00 10 	addq   $0x100000,0x18(%rbx)
  40472d:	00 
  40472e:	41 f7 c7 ff ff 0f 00 	test   $0xfffff,%r15d
  404735:	0f 85 92 00 00 00    	jne    4047cd <_ZN11__sanitizer20SizeClassAllocator32INS_4AP32EE14AllocateRegionEPNS_14AllocatorStatsEm+0xdd>
  40473b:	4c 89 fb             	mov    %r15,%rbx
  40473e:	48 c1 eb 14          	shr    $0x14,%rbx
  404742:	4c 89 f8             	mov    %r15,%rax
  404745:	48 c1 e8 2f          	shr    $0x2f,%rax
  404749:	0f 85 9b 00 00 00    	jne    4047ea <_ZN11__sanitizer20SizeClassAllocator32INS_4AP32EE14AllocateRegionEPNS_14AllocatorStatsEm+0xfa>
  40474f:	4c 89 fd             	mov    %r15,%rbp
  404752:	48 c1 ed 20          	shr    $0x20,%rbp
  404756:	49 8b 04 ec          	mov    (%r12,%rbp,8),%rax
  40475a:	48 85 c0             	test   %rax,%rax
  40475d:	75 43                	jne    4047a2 <_ZN11__sanitizer20SizeClassAllocator32INS_4AP32EE14AllocateRegionEPNS_14AllocatorStatsEm+0xb2>
  40475f:	4d 8d ac 24 00 00 04 	lea    0x40000(%r12),%r13
  404766:	00 
  404767:	b0 01                	mov    $0x1,%al
  404769:	41 86 84 24 00 00 04 	xchg   %al,0x40000(%r12)
  404770:	00 
  404771:	84 c0                	test   %al,%al
  404773:	74 08                	je     40477d <_ZN11__sanitizer20SizeClassAllocator32INS_4AP32EE14AllocateRegionEPNS_14AllocatorStatsEm+0x8d>
  404775:	4c 89 ef             	mov    %r13,%rdi
  404778:	e8 e3 0b 00 00       	callq  405360 <_ZN11__sanitizer15StaticSpinMutex8LockSlowEv>
  40477d:	49 8b 04 ec          	mov    (%r12,%rbp,8),%rax
  404781:	48 85 c0             	test   %rax,%rax
  404784:	75 17                	jne    40479d <_ZN11__sanitizer20SizeClassAllocator32INS_4AP32EE14AllocateRegionEPNS_14AllocatorStatsEm+0xad>
  404786:	48 8d 35 5a fe 01 00 	lea    0x1fe5a(%rip),%rsi        # 4245e7 <_IO_stdin_used+0x5e7>
  40478d:	bf 00 10 00 00       	mov    $0x1000,%edi
  404792:	31 d2                	xor    %edx,%edx
  404794:	e8 87 a0 00 00       	callq  40e820 <_ZN11__sanitizer9MmapOrDieEmPKcb>
  404799:	49 89 04 ec          	mov    %rax,(%r12,%rbp,8)
  40479d:	41 c6 45 00 00       	movb   $0x0,0x0(%r13)
  4047a2:	81 e3 ff 0f 00 00    	and    $0xfff,%ebx
  4047a8:	44 0f b6 04 18       	movzbl (%rax,%rbx,1),%r8d
  4047ad:	4d 85 c0             	test   %r8,%r8
  4047b0:	75 59                	jne    40480b <_ZN11__sanitizer20SizeClassAllocator32INS_4AP32EE14AllocateRegionEPNS_14AllocatorStatsEm+0x11b>
  4047b2:	44 88 34 18          	mov    %r14b,(%rax,%rbx,1)
  4047b6:	4c 89 f8             	mov    %r15,%rax
  4047b9:	48 83 c4 08          	add    $0x8,%rsp
  4047bd:	5b                   	pop    %rbx
  4047be:	41 5c                	pop    %r12
  4047c0:	41 5d                	pop    %r13
  4047c2:	41 5e                	pop    %r14
  4047c4:	41 5f                	pop    %r15
  4047c6:	5d                   	pop    %rbp
  4047c7:	c3                   	retq   
  4047c8:	45 31 ff             	xor    %r15d,%r15d
  4047cb:	eb e9                	jmp    4047b6 <_ZN11__sanitizer20SizeClassAllocator32INS_4AP32EE14AllocateRegionEPNS_14AllocatorStatsEm+0xc6>
  4047cd:	48 8d 3d d9 fc 01 00 	lea    0x1fcd9(%rip),%rdi        # 4244ad <_IO_stdin_used+0x4ad>
  4047d4:	48 8d 15 4c fd 01 00 	lea    0x1fd4c(%rip),%rdx        # 424527 <_IO_stdin_used+0x527>
  4047db:	be 31 01 00 00       	mov    $0x131,%esi
  4047e0:	31 c9                	xor    %ecx,%ecx
  4047e2:	45 31 c0             	xor    %r8d,%r8d
  4047e5:	e8 76 f0 00 00       	callq  413860 <_ZN11__sanitizer11CheckFailedEPKciS1_yy>
  4047ea:	48 8d 3d bc fc 01 00 	lea    0x1fcbc(%rip),%rdi        # 4244ad <_IO_stdin_used+0x4ad>
  4047f1:	48 8d 15 ff fd 01 00 	lea    0x1fdff(%rip),%rdx        # 4245f7 <_IO_stdin_used+0x5f7>
  4047f8:	41 b8 00 00 00 08    	mov    $0x8000000,%r8d
  4047fe:	be 21 01 00 00       	mov    $0x121,%esi
  404803:	48 89 d9             	mov    %rbx,%rcx
  404806:	e8 55 f0 00 00       	callq  413860 <_ZN11__sanitizer11CheckFailedEPKciS1_yy>
  40480b:	48 8d 3d 3c fd 01 00 	lea    0x1fd3c(%rip),%rdi        # 42454e <_IO_stdin_used+0x54e>
  404812:	48 8d 15 ad fd 01 00 	lea    0x1fdad(%rip),%rdx        # 4245c6 <_IO_stdin_used+0x5c6>
  404819:	be 47 00 00 00       	mov    $0x47,%esi
  40481e:	31 c9                	xor    %ecx,%ecx
  404820:	e8 3b f0 00 00       	callq  413860 <_ZN11__sanitizer11CheckFailedEPKciS1_yy>
  404825:	66 2e 0f 1f 84 00 00 	nopw   %cs:0x0(%rax,%rax,1)
  40482c:	00 00 00 
  40482f:	90                   	nop

0000000000404830 <_ZN11__sanitizer30SizeClassAllocator32LocalCacheINS_20SizeClassAllocator32INS_4AP32EEEE10DeallocateEPS3_mPv>:
  404830:	41 57                	push   %r15
  404832:	41 56                	push   %r14
  404834:	41 54                	push   %r12
  404836:	53                   	push   %rbx
  404837:	50                   	push   %rax
  404838:	48 85 d2             	test   %rdx,%rdx
  40483b:	0f 84 5f 01 00 00    	je     4049a0 <_ZN11__sanitizer30SizeClassAllocator32LocalCacheINS_20SizeClassAllocator32INS_4AP32EEEE10DeallocateEPS3_mPv+0x170>
  404841:	49 89 d1             	mov    %rdx,%r9
  404844:	48 83 fa 36          	cmp    $0x36,%rdx
  404848:	0f 83 6f 01 00 00    	jae    4049bd <_ZN11__sanitizer30SizeClassAllocator32LocalCacheINS_20SizeClassAllocator32INS_4AP32EEEE10DeallocateEPS3_mPv+0x18d>
  40484e:	49 89 ce             	mov    %rcx,%r14
  404851:	49 89 f0             	mov    %rsi,%r8
  404854:	49 89 fc             	mov    %rdi,%r12
  404857:	4c 89 cb             	mov    %r9,%rbx
  40485a:	48 c1 e3 0a          	shl    $0xa,%rbx
  40485e:	4c 8d 3c 1f          	lea    (%rdi,%rbx,1),%r15
  404862:	48 8b 4c 1f 08       	mov    0x8(%rdi,%rbx,1),%rcx
  404867:	48 85 c9             	test   %rcx,%rcx
  40486a:	74 31                	je     40489d <_ZN11__sanitizer30SizeClassAllocator32LocalCacheINS_20SizeClassAllocator32INS_4AP32EEEE10DeallocateEPS3_mPv+0x6d>
  40486c:	49 8b 07             	mov    (%r15),%rax
  40486f:	48 39 c8             	cmp    %rcx,%rax
  404872:	0f 84 0f 01 00 00    	je     404987 <_ZN11__sanitizer30SizeClassAllocator32LocalCacheINS_20SizeClassAllocator32INS_4AP32EEEE10DeallocateEPS3_mPv+0x157>
  404878:	48 8d 48 01          	lea    0x1(%rax),%rcx
  40487c:	49 89 0f             	mov    %rcx,(%r15)
  40487f:	4d 89 74 c7 20       	mov    %r14,0x20(%r15,%rax,8)
  404884:	49 8b 44 1c 10       	mov    0x10(%r12,%rbx,1),%rax
  404889:	49 29 84 24 10 d8 00 	sub    %rax,0xd810(%r12)
  404890:	00 
  404891:	48 83 c4 08          	add    $0x8,%rsp
  404895:	5b                   	pop    %rbx
  404896:	41 5c                	pop    %r12
  404898:	41 5e                	pop    %r14
  40489a:	41 5f                	pop    %r15
  40489c:	c3                   	retq   
  40489d:	4d 8d 14 1c          	lea    (%r12,%rbx,1),%r10
  4048a1:	49 83 c2 08          	add    $0x8,%r10
  4048a5:	49 8d bc 24 18 04 00 	lea    0x418(%r12),%rdi
  4048ac:	00 
  4048ad:	41 bb 10 00 00 00    	mov    $0x10,%r11d
  4048b3:	48 c7 c6 f1 ff ff ff 	mov    $0xfffffffffffffff1,%rsi
  4048ba:	eb 1c                	jmp    4048d8 <_ZN11__sanitizer30SizeClassAllocator32LocalCacheINS_20SizeClassAllocator32INS_4AP32EEEE10DeallocateEPS3_mPv+0xa8>
  4048bc:	48 89 07             	mov    %rax,(%rdi)
  4048bf:	49 83 c3 10          	add    $0x10,%r11
  4048c3:	48 83 c6 01          	add    $0x1,%rsi
  4048c7:	48 81 c7 00 04 00 00 	add    $0x400,%rdi
  4048ce:	48 83 fe 26          	cmp    $0x26,%rsi
  4048d2:	0f 84 a0 00 00 00    	je     404978 <_ZN11__sanitizer30SizeClassAllocator32LocalCacheINS_20SizeClassAllocator32INS_4AP32EEEE10DeallocateEPS3_mPv+0x148>
  4048d8:	b9 00 02 00 00       	mov    $0x200,%ecx
  4048dd:	48 83 fe 25          	cmp    $0x25,%rsi
  4048e1:	74 2f                	je     404912 <_ZN11__sanitizer30SizeClassAllocator32LocalCacheINS_20SizeClassAllocator32INS_4AP32EEEE10DeallocateEPS3_mPv+0xe2>
  4048e3:	48 8d 46 10          	lea    0x10(%rsi),%rax
  4048e7:	4c 89 d9             	mov    %r11,%rcx
  4048ea:	48 83 f8 11          	cmp    $0x11,%rax
  4048ee:	72 22                	jb     404912 <_ZN11__sanitizer30SizeClassAllocator32LocalCacheINS_20SizeClassAllocator32INS_4AP32EEEE10DeallocateEPS3_mPv+0xe2>
  4048f0:	48 89 f1             	mov    %rsi,%rcx
  4048f3:	48 c1 e9 02          	shr    $0x2,%rcx
  4048f7:	b8 00 01 00 00       	mov    $0x100,%eax
  4048fc:	48 d3 e0             	shl    %cl,%rax
  4048ff:	48 89 c2             	mov    %rax,%rdx
  404902:	48 c1 ea 02          	shr    $0x2,%rdx
  404906:	89 f1                	mov    %esi,%ecx
  404908:	83 e1 03             	and    $0x3,%ecx
  40490b:	48 0f af ca          	imul   %rdx,%rcx
  40490f:	48 01 c1             	add    %rax,%rcx
  404912:	b8 00 40 00 00       	mov    $0x4000,%eax
  404917:	31 d2                	xor    %edx,%edx
  404919:	f7 f1                	div    %ecx
  40491b:	83 f8 40             	cmp    $0x40,%eax
  40491e:	73 3e                	jae    40495e <_ZN11__sanitizer30SizeClassAllocator32LocalCacheINS_20SizeClassAllocator32INS_4AP32EEEE10DeallocateEPS3_mPv+0x12e>
  404920:	ba 01 00 00 00       	mov    $0x1,%edx
  404925:	48 85 c0             	test   %rax,%rax
  404928:	75 43                	jne    40496d <_ZN11__sanitizer30SizeClassAllocator32LocalCacheINS_20SizeClassAllocator32INS_4AP32EEEE10DeallocateEPS3_mPv+0x13d>
  40492a:	48 83 fa 3e          	cmp    $0x3e,%rdx
  40492e:	72 05                	jb     404935 <_ZN11__sanitizer30SizeClassAllocator32LocalCacheINS_20SizeClassAllocator32INS_4AP32EEEE10DeallocateEPS3_mPv+0x105>
  404930:	ba 3e 00 00 00       	mov    $0x3e,%edx
  404935:	48 8d 04 12          	lea    (%rdx,%rdx,1),%rax
  404939:	48 89 47 f0          	mov    %rax,-0x10(%rdi)
  40493d:	48 89 4f f8          	mov    %rcx,-0x8(%rdi)
  404941:	48 8d 14 d5 10 00 00 	lea    0x10(,%rdx,8),%rdx
  404948:	00 
  404949:	b8 14 00 00 00       	mov    $0x14,%eax
  40494e:	48 39 d1             	cmp    %rdx,%rcx
  404951:	0f 82 65 ff ff ff    	jb     4048bc <_ZN11__sanitizer30SizeClassAllocator32LocalCacheINS_20SizeClassAllocator32INS_4AP32EEEE10DeallocateEPS3_mPv+0x8c>
  404957:	31 c0                	xor    %eax,%eax
  404959:	e9 5e ff ff ff       	jmpq   4048bc <_ZN11__sanitizer30SizeClassAllocator32LocalCacheINS_20SizeClassAllocator32INS_4AP32EEEE10DeallocateEPS3_mPv+0x8c>
  40495e:	b8 40 00 00 00       	mov    $0x40,%eax
  404963:	ba 01 00 00 00       	mov    $0x1,%edx
  404968:	48 85 c0             	test   %rax,%rax
  40496b:	74 bd                	je     40492a <_ZN11__sanitizer30SizeClassAllocator32LocalCacheINS_20SizeClassAllocator32INS_4AP32EEEE10DeallocateEPS3_mPv+0xfa>
  40496d:	48 89 c2             	mov    %rax,%rdx
  404970:	48 83 fa 3e          	cmp    $0x3e,%rdx
  404974:	73 ba                	jae    404930 <_ZN11__sanitizer30SizeClassAllocator32LocalCacheINS_20SizeClassAllocator32INS_4AP32EEEE10DeallocateEPS3_mPv+0x100>
  404976:	eb bd                	jmp    404935 <_ZN11__sanitizer30SizeClassAllocator32LocalCacheINS_20SizeClassAllocator32INS_4AP32EEEE10DeallocateEPS3_mPv+0x105>
  404978:	49 8b 0a             	mov    (%r10),%rcx
  40497b:	49 8b 07             	mov    (%r15),%rax
  40497e:	48 39 c8             	cmp    %rcx,%rax
  404981:	0f 85 f1 fe ff ff    	jne    404878 <_ZN11__sanitizer30SizeClassAllocator32LocalCacheINS_20SizeClassAllocator32INS_4AP32EEEE10DeallocateEPS3_mPv+0x48>
  404987:	4c 89 e7             	mov    %r12,%rdi
  40498a:	4c 89 fe             	mov    %r15,%rsi
  40498d:	4c 89 c2             	mov    %r8,%rdx
  404990:	4c 89 c9             	mov    %r9,%rcx
  404993:	e8 48 00 00 00       	callq  4049e0 <_ZN11__sanitizer30SizeClassAllocator32LocalCacheINS_20SizeClassAllocator32INS_4AP32EEEE5DrainEPNS4_8PerClassEPS3_m>
  404998:	49 8b 07             	mov    (%r15),%rax
  40499b:	e9 d8 fe ff ff       	jmpq   404878 <_ZN11__sanitizer30SizeClassAllocator32LocalCacheINS_20SizeClassAllocator32INS_4AP32EEEE10DeallocateEPS3_mPv+0x48>
  4049a0:	48 8d 3d bf f9 01 00 	lea    0x1f9bf(%rip),%rdi        # 424366 <_IO_stdin_used+0x366>
  4049a7:	48 8d 15 34 fa 01 00 	lea    0x1fa34(%rip),%rdx        # 4243e2 <_IO_stdin_used+0x3e2>
  4049ae:	be a8 00 00 00       	mov    $0xa8,%esi
  4049b3:	31 c9                	xor    %ecx,%ecx
  4049b5:	45 31 c0             	xor    %r8d,%r8d
  4049b8:	e8 a3 ee 00 00       	callq  413860 <_ZN11__sanitizer11CheckFailedEPKciS1_yy>
  4049bd:	48 8d 3d a2 f9 01 00 	lea    0x1f9a2(%rip),%rdi        # 424366 <_IO_stdin_used+0x366>
  4049c4:	48 8d 15 2f fa 01 00 	lea    0x1fa2f(%rip),%rdx        # 4243fa <_IO_stdin_used+0x3fa>
  4049cb:	41 b8 36 00 00 00    	mov    $0x36,%r8d
  4049d1:	be a9 00 00 00       	mov    $0xa9,%esi
  4049d6:	4c 89 c9             	mov    %r9,%rcx
  4049d9:	e8 82 ee 00 00       	callq  413860 <_ZN11__sanitizer11CheckFailedEPKciS1_yy>
  4049de:	66 90                	xchg   %ax,%ax

00000000004049e0 <_ZN11__sanitizer30SizeClassAllocator32LocalCacheINS_20SizeClassAllocator32INS_4AP32EEEE5DrainEPNS4_8PerClassEPS3_m>:
  4049e0:	55                   	push   %rbp
  4049e1:	41 57                	push   %r15
  4049e3:	41 56                	push   %r14
  4049e5:	41 55                	push   %r13
  4049e7:	41 54                	push   %r12
  4049e9:	53                   	push   %rbx
  4049ea:	48 83 ec 18          	sub    $0x18,%rsp
  4049ee:	49 89 f2             	mov    %rsi,%r10
  4049f1:	4c 8b 26             	mov    (%rsi),%r12
  4049f4:	4c 8b 7e 08          	mov    0x8(%rsi),%r15
  4049f8:	49 d1 ef             	shr    %r15
  4049fb:	4d 39 e7             	cmp    %r12,%r15
  4049fe:	4d 0f 43 fc          	cmovae %r12,%r15
  404a02:	49 89 c9             	mov    %rcx,%r9
  404a05:	49 89 fd             	mov    %rdi,%r13
  404a08:	48 89 c8             	mov    %rcx,%rax
  404a0b:	48 c1 e0 0a          	shl    $0xa,%rax
  404a0f:	48 8b 4c 07 18       	mov    0x18(%rdi,%rax,1),%rcx
  404a14:	48 85 c9             	test   %rcx,%rcx
  404a17:	74 4d                	je     404a66 <_ZN11__sanitizer30SizeClassAllocator32LocalCacheINS_20SizeClassAllocator32INS_4AP32EEEE5DrainEPNS4_8PerClassEPS3_m+0x86>
  404a19:	48 83 f9 36          	cmp    $0x36,%rcx
  404a1d:	0f 83 e6 02 00 00    	jae    404d09 <_ZN11__sanitizer30SizeClassAllocator32LocalCacheINS_20SizeClassAllocator32INS_4AP32EEEE5DrainEPNS4_8PerClassEPS3_m+0x329>
  404a23:	49 89 ce             	mov    %rcx,%r14
  404a26:	49 c1 e6 0a          	shl    $0xa,%r14
  404a2a:	4b 8d 1c 2e          	lea    (%r14,%r13,1),%rbx
  404a2e:	4b 8b 44 35 00       	mov    0x0(%r13,%r14,1),%rax
  404a33:	48 85 c0             	test   %rax,%rax
  404a36:	0f 84 7f 02 00 00    	je     404cbb <_ZN11__sanitizer30SizeClassAllocator32LocalCacheINS_20SizeClassAllocator32INS_4AP32EEEE5DrainEPNS4_8PerClassEPS3_m+0x2db>
  404a3c:	48 8d 48 ff          	lea    -0x1(%rax),%rcx
  404a40:	48 89 0b             	mov    %rcx,(%rbx)
  404a43:	48 8b 74 c3 10       	mov    0x10(%rbx,%rax,8),%rsi
  404a48:	48 8b 4c c3 18       	mov    0x18(%rbx,%rax,8),%rcx
  404a4d:	0f 18 06             	prefetchnta (%rsi)
  404a50:	4b 8b 44 35 10       	mov    0x10(%r13,%r14,1),%rax
  404a55:	49 01 85 10 d8 00 00 	add    %rax,0xd810(%r13)
  404a5c:	48 85 c9             	test   %rcx,%rcx
  404a5f:	75 19                	jne    404a7a <_ZN11__sanitizer30SizeClassAllocator32LocalCacheINS_20SizeClassAllocator32INS_4AP32EEEE5DrainEPNS4_8PerClassEPS3_m+0x9a>
  404a61:	e9 86 02 00 00       	jmpq   404cec <_ZN11__sanitizer30SizeClassAllocator32LocalCacheINS_20SizeClassAllocator32INS_4AP32EEEE5DrainEPNS4_8PerClassEPS3_m+0x30c>
  404a66:	4c 89 e0             	mov    %r12,%rax
  404a69:	4c 29 f8             	sub    %r15,%rax
  404a6c:	49 8b 4c c2 20       	mov    0x20(%r10,%rax,8),%rcx
  404a71:	48 85 c9             	test   %rcx,%rcx
  404a74:	0f 84 72 02 00 00    	je     404cec <_ZN11__sanitizer30SizeClassAllocator32LocalCacheINS_20SizeClassAllocator32INS_4AP32EEEE5DrainEPNS4_8PerClassEPS3_m+0x30c>
  404a7a:	4c 89 79 08          	mov    %r15,0x8(%rcx)
  404a7e:	4d 85 ff             	test   %r15,%r15
  404a81:	0f 84 0e 02 00 00    	je     404c95 <_ZN11__sanitizer30SizeClassAllocator32LocalCacheINS_20SizeClassAllocator32INS_4AP32EEEE5DrainEPNS4_8PerClassEPS3_m+0x2b5>
  404a87:	49 83 ff 04          	cmp    $0x4,%r15
  404a8b:	72 3c                	jb     404ac9 <_ZN11__sanitizer30SizeClassAllocator32LocalCacheINS_20SizeClassAllocator32INS_4AP32EEEE5DrainEPNS4_8PerClassEPS3_m+0xe9>
  404a8d:	48 8d 41 10          	lea    0x10(%rcx),%rax
  404a91:	4e 8d 04 fd 00 00 00 	lea    0x0(,%r15,8),%r8
  404a98:	00 
  404a99:	4b 8d 34 e2          	lea    (%r10,%r12,8),%rsi
  404a9d:	48 83 c6 20          	add    $0x20,%rsi
  404aa1:	48 39 c6             	cmp    %rax,%rsi
  404aa4:	0f 86 f3 00 00 00    	jbe    404b9d <_ZN11__sanitizer30SizeClassAllocator32LocalCacheINS_20SizeClassAllocator32INS_4AP32EEEE5DrainEPNS4_8PerClassEPS3_m+0x1bd>
  404aaa:	4a 8d 04 f9          	lea    (%rcx,%r15,8),%rax
  404aae:	48 83 c0 10          	add    $0x10,%rax
  404ab2:	4a 8d 34 e5 20 00 00 	lea    0x20(,%r12,8),%rsi
  404ab9:	00 
  404aba:	4c 29 c6             	sub    %r8,%rsi
  404abd:	4c 01 d6             	add    %r10,%rsi
  404ac0:	48 39 c6             	cmp    %rax,%rsi
  404ac3:	0f 83 d4 00 00 00    	jae    404b9d <_ZN11__sanitizer30SizeClassAllocator32LocalCacheINS_20SizeClassAllocator32INS_4AP32EEEE5DrainEPNS4_8PerClassEPS3_m+0x1bd>
  404ac9:	31 c0                	xor    %eax,%eax
  404acb:	44 89 fe             	mov    %r15d,%esi
  404ace:	29 c6                	sub    %eax,%esi
  404ad0:	48 89 c5             	mov    %rax,%rbp
  404ad3:	48 f7 d5             	not    %rbp
  404ad6:	4c 01 fd             	add    %r15,%rbp
  404ad9:	48 83 e6 07          	and    $0x7,%rsi
  404add:	74 34                	je     404b13 <_ZN11__sanitizer30SizeClassAllocator32LocalCacheINS_20SizeClassAllocator32INS_4AP32EEEE5DrainEPNS4_8PerClassEPS3_m+0x133>
  404adf:	4a 8d 3c e5 00 00 00 	lea    0x0(,%r12,8),%rdi
  404ae6:	00 
  404ae7:	4a 8d 1c fd 00 00 00 	lea    0x0(,%r15,8),%rbx
  404aee:	00 
  404aef:	48 29 df             	sub    %rbx,%rdi
  404af2:	4c 01 d7             	add    %r10,%rdi
  404af5:	48 83 c7 20          	add    $0x20,%rdi
  404af9:	0f 1f 80 00 00 00 00 	nopl   0x0(%rax)
  404b00:	48 8b 1c c7          	mov    (%rdi,%rax,8),%rbx
  404b04:	48 89 5c c1 10       	mov    %rbx,0x10(%rcx,%rax,8)
  404b09:	48 83 c0 01          	add    $0x1,%rax
  404b0d:	48 83 c6 ff          	add    $0xffffffffffffffff,%rsi
  404b11:	75 ed                	jne    404b00 <_ZN11__sanitizer30SizeClassAllocator32LocalCacheINS_20SizeClassAllocator32INS_4AP32EEEE5DrainEPNS4_8PerClassEPS3_m+0x120>
  404b13:	48 83 fd 07          	cmp    $0x7,%rbp
  404b17:	0f 82 78 01 00 00    	jb     404c95 <_ZN11__sanitizer30SizeClassAllocator32LocalCacheINS_20SizeClassAllocator32INS_4AP32EEEE5DrainEPNS4_8PerClassEPS3_m+0x2b5>
  404b1d:	49 c1 e4 03          	shl    $0x3,%r12
  404b21:	4a 8d 34 fd 00 00 00 	lea    0x0(,%r15,8),%rsi
  404b28:	00 
  404b29:	49 29 f4             	sub    %rsi,%r12
  404b2c:	4b 8d 3c 14          	lea    (%r12,%r10,1),%rdi
  404b30:	48 83 c7 58          	add    $0x58,%rdi
  404b34:	66 2e 0f 1f 84 00 00 	nopw   %cs:0x0(%rax,%rax,1)
  404b3b:	00 00 00 
  404b3e:	66 90                	xchg   %ax,%ax
  404b40:	48 8b 74 c7 c8       	mov    -0x38(%rdi,%rax,8),%rsi
  404b45:	48 89 74 c1 10       	mov    %rsi,0x10(%rcx,%rax,8)
  404b4a:	48 8b 74 c7 d0       	mov    -0x30(%rdi,%rax,8),%rsi
  404b4f:	48 89 74 c1 18       	mov    %rsi,0x18(%rcx,%rax,8)
  404b54:	48 8b 74 c7 d8       	mov    -0x28(%rdi,%rax,8),%rsi
  404b59:	48 89 74 c1 20       	mov    %rsi,0x20(%rcx,%rax,8)
  404b5e:	48 8b 74 c7 e0       	mov    -0x20(%rdi,%rax,8),%rsi
  404b63:	48 89 74 c1 28       	mov    %rsi,0x28(%rcx,%rax,8)
  404b68:	48 8b 74 c7 e8       	mov    -0x18(%rdi,%rax,8),%rsi
  404b6d:	48 89 74 c1 30       	mov    %rsi,0x30(%rcx,%rax,8)
  404b72:	48 8b 74 c7 f0       	mov    -0x10(%rdi,%rax,8),%rsi
  404b77:	48 89 74 c1 38       	mov    %rsi,0x38(%rcx,%rax,8)
  404b7c:	48 8b 74 c7 f8       	mov    -0x8(%rdi,%rax,8),%rsi
  404b81:	48 89 74 c1 40       	mov    %rsi,0x40(%rcx,%rax,8)
  404b86:	48 8b 34 c7          	mov    (%rdi,%rax,8),%rsi
  404b8a:	48 89 74 c1 48       	mov    %rsi,0x48(%rcx,%rax,8)
  404b8f:	48 83 c0 08          	add    $0x8,%rax
  404b93:	49 39 c7             	cmp    %rax,%r15
  404b96:	75 a8                	jne    404b40 <_ZN11__sanitizer30SizeClassAllocator32LocalCacheINS_20SizeClassAllocator32INS_4AP32EEEE5DrainEPNS4_8PerClassEPS3_m+0x160>
  404b98:	e9 f8 00 00 00       	jmpq   404c95 <_ZN11__sanitizer30SizeClassAllocator32LocalCacheINS_20SizeClassAllocator32INS_4AP32EEEE5DrainEPNS4_8PerClassEPS3_m+0x2b5>
  404b9d:	48 b8 fc ff ff ff ff 	movabs $0x7ffffffffffffffc,%rax
  404ba4:	ff ff 7f 
  404ba7:	4c 21 f8             	and    %r15,%rax
  404baa:	48 8d 70 fc          	lea    -0x4(%rax),%rsi
  404bae:	48 89 f7             	mov    %rsi,%rdi
  404bb1:	48 c1 ef 02          	shr    $0x2,%rdi
  404bb5:	48 83 c7 01          	add    $0x1,%rdi
  404bb9:	89 fd                	mov    %edi,%ebp
  404bbb:	83 e5 03             	and    $0x3,%ebp
  404bbe:	48 83 fe 0c          	cmp    $0xc,%rsi
  404bc2:	73 07                	jae    404bcb <_ZN11__sanitizer30SizeClassAllocator32LocalCacheINS_20SizeClassAllocator32INS_4AP32EEEE5DrainEPNS4_8PerClassEPS3_m+0x1eb>
  404bc4:	31 ff                	xor    %edi,%edi
  404bc6:	e9 81 00 00 00       	jmpq   404c4c <_ZN11__sanitizer30SizeClassAllocator32LocalCacheINS_20SizeClassAllocator32INS_4AP32EEEE5DrainEPNS4_8PerClassEPS3_m+0x26c>
  404bcb:	4a 8d 34 e5 00 00 00 	lea    0x0(,%r12,8),%rsi
  404bd2:	00 
  404bd3:	4c 29 c6             	sub    %r8,%rsi
  404bd6:	4a 8d 1c 16          	lea    (%rsi,%r10,1),%rbx
  404bda:	48 81 c3 90 00 00 00 	add    $0x90,%rbx
  404be1:	48 89 ee             	mov    %rbp,%rsi
  404be4:	48 29 fe             	sub    %rdi,%rsi
  404be7:	31 ff                	xor    %edi,%edi
  404be9:	0f 1f 80 00 00 00 00 	nopl   0x0(%rax)
  404bf0:	0f 10 44 fb 90       	movups -0x70(%rbx,%rdi,8),%xmm0
  404bf5:	0f 10 4c fb a0       	movups -0x60(%rbx,%rdi,8),%xmm1
  404bfa:	0f 11 44 f9 10       	movups %xmm0,0x10(%rcx,%rdi,8)
  404bff:	0f 11 4c f9 20       	movups %xmm1,0x20(%rcx,%rdi,8)
  404c04:	0f 10 44 fb b0       	movups -0x50(%rbx,%rdi,8),%xmm0
  404c09:	0f 10 4c fb c0       	movups -0x40(%rbx,%rdi,8),%xmm1
  404c0e:	0f 11 44 f9 30       	movups %xmm0,0x30(%rcx,%rdi,8)
  404c13:	0f 11 4c f9 40       	movups %xmm1,0x40(%rcx,%rdi,8)
  404c18:	0f 10 44 fb d0       	movups -0x30(%rbx,%rdi,8),%xmm0
  404c1d:	0f 10 4c fb e0       	movups -0x20(%rbx,%rdi,8),%xmm1
  404c22:	0f 11 44 f9 50       	movups %xmm0,0x50(%rcx,%rdi,8)
  404c27:	0f 11 4c f9 60       	movups %xmm1,0x60(%rcx,%rdi,8)
  404c2c:	0f 10 44 fb f0       	movups -0x10(%rbx,%rdi,8),%xmm0
  404c31:	0f 10 0c fb          	movups (%rbx,%rdi,8),%xmm1
  404c35:	0f 11 44 f9 70       	movups %xmm0,0x70(%rcx,%rdi,8)
  404c3a:	0f 11 8c f9 80 00 00 	movups %xmm1,0x80(%rcx,%rdi,8)
  404c41:	00 
  404c42:	48 83 c7 10          	add    $0x10,%rdi
  404c46:	48 83 c6 04          	add    $0x4,%rsi
  404c4a:	75 a4                	jne    404bf0 <_ZN11__sanitizer30SizeClassAllocator32LocalCacheINS_20SizeClassAllocator32INS_4AP32EEEE5DrainEPNS4_8PerClassEPS3_m+0x210>
  404c4c:	48 85 ed             	test   %rbp,%rbp
  404c4f:	74 3b                	je     404c8c <_ZN11__sanitizer30SizeClassAllocator32LocalCacheINS_20SizeClassAllocator32INS_4AP32EEEE5DrainEPNS4_8PerClassEPS3_m+0x2ac>
  404c51:	48 c1 e7 03          	shl    $0x3,%rdi
  404c55:	4a 8d 34 e5 00 00 00 	lea    0x0(,%r12,8),%rsi
  404c5c:	00 
  404c5d:	4c 29 c6             	sub    %r8,%rsi
  404c60:	4c 01 d6             	add    %r10,%rsi
  404c63:	48 83 c6 30          	add    $0x30,%rsi
  404c67:	48 f7 dd             	neg    %rbp
  404c6a:	66 0f 1f 44 00 00    	nopw   0x0(%rax,%rax,1)
  404c70:	0f 10 44 3e f0       	movups -0x10(%rsi,%rdi,1),%xmm0
  404c75:	0f 10 0c 3e          	movups (%rsi,%rdi,1),%xmm1
  404c79:	0f 11 44 39 10       	movups %xmm0,0x10(%rcx,%rdi,1)
  404c7e:	0f 11 4c 39 20       	movups %xmm1,0x20(%rcx,%rdi,1)
  404c83:	48 83 c7 20          	add    $0x20,%rdi
  404c87:	48 ff c5             	inc    %rbp
  404c8a:	75 e4                	jne    404c70 <_ZN11__sanitizer30SizeClassAllocator32LocalCacheINS_20SizeClassAllocator32INS_4AP32EEEE5DrainEPNS4_8PerClassEPS3_m+0x290>
  404c8c:	49 39 c7             	cmp    %rax,%r15
  404c8f:	0f 85 36 fe ff ff    	jne    404acb <_ZN11__sanitizer30SizeClassAllocator32LocalCacheINS_20SizeClassAllocator32INS_4AP32EEEE5DrainEPNS4_8PerClassEPS3_m+0xeb>
  404c95:	4d 29 3a             	sub    %r15,(%r10)
  404c98:	49 81 c5 00 d8 00 00 	add    $0xd800,%r13
  404c9f:	48 89 d7             	mov    %rdx,%rdi
  404ca2:	4c 89 ee             	mov    %r13,%rsi
  404ca5:	4c 89 ca             	mov    %r9,%rdx
  404ca8:	48 83 c4 18          	add    $0x18,%rsp
  404cac:	5b                   	pop    %rbx
  404cad:	41 5c                	pop    %r12
  404caf:	41 5d                	pop    %r13
  404cb1:	41 5e                	pop    %r14
  404cb3:	41 5f                	pop    %r15
  404cb5:	5d                   	pop    %rbp
  404cb6:	e9 75 00 00 00       	jmpq   404d30 <_ZN11__sanitizer20SizeClassAllocator32INS_4AP32EE15DeallocateBatchEPNS_14AllocatorStatsEmPNS2_13TransferBatchE>
  404cbb:	4c 89 ef             	mov    %r13,%rdi
  404cbe:	48 89 de             	mov    %rbx,%rsi
  404cc1:	4c 89 4c 24 10       	mov    %r9,0x10(%rsp)
  404cc6:	48 89 d5             	mov    %rdx,%rbp
  404cc9:	4c 89 54 24 08       	mov    %r10,0x8(%rsp)
  404cce:	e8 2d f2 ff ff       	callq  403f00 <_ZN11__sanitizer30SizeClassAllocator32LocalCacheINS_20SizeClassAllocator32INS_4AP32EEEE6RefillEPNS4_8PerClassEPS3_m>
  404cd3:	4c 8b 54 24 08       	mov    0x8(%rsp),%r10
  404cd8:	4c 8b 4c 24 10       	mov    0x10(%rsp),%r9
  404cdd:	84 c0                	test   %al,%al
  404cdf:	74 0b                	je     404cec <_ZN11__sanitizer30SizeClassAllocator32LocalCacheINS_20SizeClassAllocator32INS_4AP32EEEE5DrainEPNS4_8PerClassEPS3_m+0x30c>
  404ce1:	48 89 ea             	mov    %rbp,%rdx
  404ce4:	48 8b 03             	mov    (%rbx),%rax
  404ce7:	e9 50 fd ff ff       	jmpq   404a3c <_ZN11__sanitizer30SizeClassAllocator32LocalCacheINS_20SizeClassAllocator32INS_4AP32EEEE5DrainEPNS4_8PerClassEPS3_m+0x5c>
  404cec:	48 8d 05 95 24 03 00 	lea    0x32495(%rip),%rax        # 437188 <_ZN11__sanitizer17SanitizerToolNameE>
  404cf3:	48 8b 30             	mov    (%rax),%rsi
  404cf6:	48 8d 3d 9b f9 01 00 	lea    0x1f99b(%rip),%rdi        # 424698 <_IO_stdin_used+0x698>
  404cfd:	31 c0                	xor    %eax,%eax
  404cff:	e8 5c b3 00 00       	callq  410060 <_ZN11__sanitizer6ReportEPKcz>
  404d04:	e8 77 ea 00 00       	callq  413780 <_ZN11__sanitizer3DieEv>
  404d09:	48 8d 3d 56 f6 01 00 	lea    0x1f656(%rip),%rdi        # 424366 <_IO_stdin_used+0x366>
  404d10:	48 8d 15 e3 f6 01 00 	lea    0x1f6e3(%rip),%rdx        # 4243fa <_IO_stdin_used+0x3fa>
  404d17:	41 b8 36 00 00 00    	mov    $0x36,%r8d
  404d1d:	be 9a 00 00 00       	mov    $0x9a,%esi
  404d22:	e8 39 eb 00 00       	callq  413860 <_ZN11__sanitizer11CheckFailedEPKciS1_yy>
  404d27:	66 0f 1f 84 00 00 00 	nopw   0x0(%rax,%rax,1)
  404d2e:	00 00 

0000000000404d30 <_ZN11__sanitizer20SizeClassAllocator32INS_4AP32EE15DeallocateBatchEPNS_14AllocatorStatsEmPNS2_13TransferBatchE>:
  404d30:	41 57                	push   %r15
  404d32:	41 56                	push   %r14
  404d34:	41 54                	push   %r12
  404d36:	53                   	push   %rbx
  404d37:	50                   	push   %rax
  404d38:	48 83 79 08 00       	cmpq   $0x0,0x8(%rcx)
  404d3d:	0f 84 8c 00 00 00    	je     404dcf <_ZN11__sanitizer20SizeClassAllocator32INS_4AP32EE15DeallocateBatchEPNS_14AllocatorStatsEmPNS2_13TransferBatchE+0x9f>
  404d43:	49 89 cf             	mov    %rcx,%r15
  404d46:	48 89 d3             	mov    %rdx,%rbx
  404d49:	49 89 fc             	mov    %rdi,%r12
  404d4c:	48 c1 e3 06          	shl    $0x6,%rbx
  404d50:	4c 8d 34 1f          	lea    (%rdi,%rbx,1),%r14
  404d54:	49 81 c6 40 00 04 00 	add    $0x40040,%r14
  404d5b:	b0 01                	mov    $0x1,%al
  404d5d:	86 84 1f 40 00 04 00 	xchg   %al,0x40040(%rdi,%rbx,1)
  404d64:	84 c0                	test   %al,%al
  404d66:	74 08                	je     404d70 <_ZN11__sanitizer20SizeClassAllocator32INS_4AP32EE15DeallocateBatchEPNS_14AllocatorStatsEmPNS2_13TransferBatchE+0x40>
  404d68:	4c 89 f7             	mov    %r14,%rdi
  404d6b:	e8 f0 05 00 00       	callq  405360 <_ZN11__sanitizer15StaticSpinMutex8LockSlowEv>
  404d70:	49 8d 04 1c          	lea    (%r12,%rbx,1),%rax
  404d74:	48 05 48 00 04 00    	add    $0x40048,%rax
  404d7a:	49 8b 8c 1c 48 00 04 	mov    0x40048(%r12,%rbx,1),%rcx
  404d81:	00 
  404d82:	48 85 c9             	test   %rcx,%rcx
  404d85:	74 19                	je     404da0 <_ZN11__sanitizer20SizeClassAllocator32INS_4AP32EE15DeallocateBatchEPNS_14AllocatorStatsEmPNS2_13TransferBatchE+0x70>
  404d87:	49 8b 94 1c 50 00 04 	mov    0x40050(%r12,%rbx,1),%rdx
  404d8e:	00 
  404d8f:	49 89 17             	mov    %rdx,(%r15)
  404d92:	4d 89 bc 1c 50 00 04 	mov    %r15,0x40050(%r12,%rbx,1)
  404d99:	00 
  404d9a:	48 83 c1 01          	add    $0x1,%rcx
  404d9e:	eb 1c                	jmp    404dbc <_ZN11__sanitizer20SizeClassAllocator32INS_4AP32EE15DeallocateBatchEPNS_14AllocatorStatsEmPNS2_13TransferBatchE+0x8c>
  404da0:	49 c7 07 00 00 00 00 	movq   $0x0,(%r15)
  404da7:	4d 89 bc 1c 58 00 04 	mov    %r15,0x40058(%r12,%rbx,1)
  404dae:	00 
  404daf:	4d 89 bc 1c 50 00 04 	mov    %r15,0x40050(%r12,%rbx,1)
  404db6:	00 
  404db7:	b9 01 00 00 00       	mov    $0x1,%ecx
  404dbc:	48 89 08             	mov    %rcx,(%rax)
  404dbf:	41 c6 06 00          	movb   $0x0,(%r14)
  404dc3:	48 83 c4 08          	add    $0x8,%rsp
  404dc7:	5b                   	pop    %rbx
  404dc8:	41 5c                	pop    %r12
  404dca:	41 5e                	pop    %r14
  404dcc:	41 5f                	pop    %r15
  404dce:	c3                   	retq   
  404dcf:	48 8d 3d d7 f6 01 00 	lea    0x1f6d7(%rip),%rdi        # 4244ad <_IO_stdin_used+0x4ad>
  404dd6:	48 8d 15 3c f6 01 00 	lea    0x1f63c(%rip),%rdx        # 424419 <_IO_stdin_used+0x419>
  404ddd:	be b8 00 00 00       	mov    $0xb8,%esi
  404de2:	31 c9                	xor    %ecx,%ecx
  404de4:	45 31 c0             	xor    %r8d,%r8d
  404de7:	e8 74 ea 00 00       	callq  413860 <_ZN11__sanitizer11CheckFailedEPKciS1_yy>
  404dec:	0f 1f 40 00          	nopl   0x0(%rax)

0000000000404df0 <_ZN11__sanitizer17CombinedAllocatorINS_20SizeClassAllocator32INS_4AP32EEENS_32LargeMmapAllocatorPtrArrayStaticEE10ReallocateEPNS_30SizeClassAllocator32LocalCacheIS3_EEPvmm>:
  404df0:	55                   	push   %rbp
  404df1:	41 57                	push   %r15
  404df3:	41 56                	push   %r14
  404df5:	41 55                	push   %r13
  404df7:	41 54                	push   %r12
  404df9:	53                   	push   %rbx
  404dfa:	50                   	push   %rax
  404dfb:	4d 89 c4             	mov    %r8,%r12
  404dfe:	48 89 cb             	mov    %rcx,%rbx
  404e01:	49 89 f7             	mov    %rsi,%r15
  404e04:	49 89 fd             	mov    %rdi,%r13
  404e07:	48 85 d2             	test   %rdx,%rdx
  404e0a:	0f 84 cf 00 00 00    	je     404edf <_ZN11__sanitizer17CombinedAllocatorINS_20SizeClassAllocator32INS_4AP32EEENS_32LargeMmapAllocatorPtrArrayStaticEE10ReallocateEPNS_30SizeClassAllocator32LocalCacheIS3_EEPvmm+0xef>
  404e10:	49 89 d6             	mov    %rdx,%r14
  404e13:	48 b8 ff ff ff ff ff 	movabs $0x7fffffffffff,%rax
  404e1a:	7f 00 00 
  404e1d:	48 85 db             	test   %rbx,%rbx
  404e20:	0f 84 f3 00 00 00    	je     404f19 <_ZN11__sanitizer17CombinedAllocatorINS_20SizeClassAllocator32INS_4AP32EEENS_32LargeMmapAllocatorPtrArrayStaticEE10ReallocateEPNS_30SizeClassAllocator32LocalCacheIS3_EEPvmm+0x129>
  404e26:	49 39 c6             	cmp    %rax,%r14
  404e29:	77 1d                	ja     404e48 <_ZN11__sanitizer17CombinedAllocatorINS_20SizeClassAllocator32INS_4AP32EEENS_32LargeMmapAllocatorPtrArrayStaticEE10ReallocateEPNS_30SizeClassAllocator32LocalCacheIS3_EEPvmm+0x58>
  404e2b:	4c 89 f0             	mov    %r14,%rax
  404e2e:	48 c1 e8 20          	shr    $0x20,%rax
  404e32:	49 8b 44 c5 00       	mov    0x0(%r13,%rax,8),%rax
  404e37:	48 85 c0             	test   %rax,%rax
  404e3a:	74 0c                	je     404e48 <_ZN11__sanitizer17CombinedAllocatorINS_20SizeClassAllocator32INS_4AP32EEENS_32LargeMmapAllocatorPtrArrayStaticEE10ReallocateEPNS_30SizeClassAllocator32LocalCacheIS3_EEPvmm+0x58>
  404e3c:	44 89 f1             	mov    %r14d,%ecx
  404e3f:	c1 e9 14             	shr    $0x14,%ecx
  404e42:	80 3c 08 00          	cmpb   $0x0,(%rax,%rcx,1)
  404e46:	75 18                	jne    404e60 <_ZN11__sanitizer17CombinedAllocatorINS_20SizeClassAllocator32INS_4AP32EEENS_32LargeMmapAllocatorPtrArrayStaticEE10ReallocateEPNS_30SizeClassAllocator32LocalCacheIS3_EEPvmm+0x70>
  404e48:	49 8d bd c0 0d 04 00 	lea    0x40dc0(%r13),%rdi
  404e4f:	4c 89 f6             	mov    %r14,%rsi
  404e52:	e8 79 03 00 00       	callq  4051d0 <_ZN11__sanitizer18LargeMmapAllocatorINS_20NoOpMapUnmapCallbackENS_32LargeMmapAllocatorPtrArrayStaticENS_21LocalAddressSpaceViewEE13GetBlockBeginEPKv>
  404e57:	48 85 c0             	test   %rax,%rax
  404e5a:	0f 84 3d 01 00 00    	je     404f9d <_ZN11__sanitizer17CombinedAllocatorINS_20SizeClassAllocator32INS_4AP32EEENS_32LargeMmapAllocatorPtrArrayStaticEE10ReallocateEPNS_30SizeClassAllocator32LocalCacheIS3_EEPvmm+0x1ad>
  404e60:	4c 89 ef             	mov    %r13,%rdi
  404e63:	4c 89 f6             	mov    %r14,%rsi
  404e66:	e8 55 01 00 00       	callq  404fc0 <_ZN11__sanitizer17CombinedAllocatorINS_20SizeClassAllocator32INS_4AP32EEENS_32LargeMmapAllocatorPtrArrayStaticEE24GetActuallyAllocatedSizeEPv>
  404e6b:	48 89 c5             	mov    %rax,%rbp
  404e6e:	4c 89 ef             	mov    %r13,%rdi
  404e71:	4c 89 fe             	mov    %r15,%rsi
  404e74:	48 89 da             	mov    %rbx,%rdx
  404e77:	4c 89 e1             	mov    %r12,%rcx
  404e7a:	e8 01 ec ff ff       	callq  403a80 <_ZN11__sanitizer17CombinedAllocatorINS_20SizeClassAllocator32INS_4AP32EEENS_32LargeMmapAllocatorPtrArrayStaticEE8AllocateEPNS_30SizeClassAllocator32LocalCacheIS3_EEmm>
  404e7f:	49 89 c4             	mov    %rax,%r12
  404e82:	48 85 c0             	test   %rax,%rax
  404e85:	74 15                	je     404e9c <_ZN11__sanitizer17CombinedAllocatorINS_20SizeClassAllocator32INS_4AP32EEENS_32LargeMmapAllocatorPtrArrayStaticEE10ReallocateEPNS_30SizeClassAllocator32LocalCacheIS3_EEPvmm+0xac>
  404e87:	48 39 dd             	cmp    %rbx,%rbp
  404e8a:	48 0f 47 eb          	cmova  %rbx,%rbp
  404e8e:	4c 89 e7             	mov    %r12,%rdi
  404e91:	4c 89 f6             	mov    %r14,%rsi
  404e94:	48 89 ea             	mov    %rbp,%rdx
  404e97:	e8 e4 5e 00 00       	callq  40ad80 <_ZN11__sanitizer15internal_memcpyEPvPKvm>
  404e9c:	48 b8 ff ff ff ff ff 	movabs $0x7fffffffffff,%rax
  404ea3:	7f 00 00 
  404ea6:	49 39 c6             	cmp    %rax,%r14
  404ea9:	77 53                	ja     404efe <_ZN11__sanitizer17CombinedAllocatorINS_20SizeClassAllocator32INS_4AP32EEENS_32LargeMmapAllocatorPtrArrayStaticEE10ReallocateEPNS_30SizeClassAllocator32LocalCacheIS3_EEPvmm+0x10e>
  404eab:	4c 89 f0             	mov    %r14,%rax
  404eae:	48 c1 e8 20          	shr    $0x20,%rax
  404eb2:	49 8b 54 c5 00       	mov    0x0(%r13,%rax,8),%rdx
  404eb7:	48 85 d2             	test   %rdx,%rdx
  404eba:	74 42                	je     404efe <_ZN11__sanitizer17CombinedAllocatorINS_20SizeClassAllocator32INS_4AP32EEENS_32LargeMmapAllocatorPtrArrayStaticEE10ReallocateEPNS_30SizeClassAllocator32LocalCacheIS3_EEPvmm+0x10e>
  404ebc:	44 89 f1             	mov    %r14d,%ecx
  404ebf:	c1 e9 14             	shr    $0x14,%ecx
  404ec2:	80 3c 0a 00          	cmpb   $0x0,(%rdx,%rcx,1)
  404ec6:	74 36                	je     404efe <_ZN11__sanitizer17CombinedAllocatorINS_20SizeClassAllocator32INS_4AP32EEENS_32LargeMmapAllocatorPtrArrayStaticEE10ReallocateEPNS_30SizeClassAllocator32LocalCacheIS3_EEPvmm+0x10e>
  404ec8:	49 8b 44 c5 00       	mov    0x0(%r13,%rax,8),%rax
  404ecd:	48 85 c0             	test   %rax,%rax
  404ed0:	0f 84 93 00 00 00    	je     404f69 <_ZN11__sanitizer17CombinedAllocatorINS_20SizeClassAllocator32INS_4AP32EEENS_32LargeMmapAllocatorPtrArrayStaticEE10ReallocateEPNS_30SizeClassAllocator32LocalCacheIS3_EEPvmm+0x179>
  404ed6:	0f b6 14 08          	movzbl (%rax,%rcx,1),%edx
  404eda:	e9 8c 00 00 00       	jmpq   404f6b <_ZN11__sanitizer17CombinedAllocatorINS_20SizeClassAllocator32INS_4AP32EEENS_32LargeMmapAllocatorPtrArrayStaticEE10ReallocateEPNS_30SizeClassAllocator32LocalCacheIS3_EEPvmm+0x17b>
  404edf:	4c 89 ef             	mov    %r13,%rdi
  404ee2:	4c 89 fe             	mov    %r15,%rsi
  404ee5:	48 89 da             	mov    %rbx,%rdx
  404ee8:	4c 89 e1             	mov    %r12,%rcx
  404eeb:	48 83 c4 08          	add    $0x8,%rsp
  404eef:	5b                   	pop    %rbx
  404ef0:	41 5c                	pop    %r12
  404ef2:	41 5d                	pop    %r13
  404ef4:	41 5e                	pop    %r14
  404ef6:	41 5f                	pop    %r15
  404ef8:	5d                   	pop    %rbp
  404ef9:	e9 82 eb ff ff       	jmpq   403a80 <_ZN11__sanitizer17CombinedAllocatorINS_20SizeClassAllocator32INS_4AP32EEENS_32LargeMmapAllocatorPtrArrayStaticEE8AllocateEPNS_30SizeClassAllocator32LocalCacheIS3_EEmm>
  404efe:	49 8d bd c0 0d 04 00 	lea    0x40dc0(%r13),%rdi
  404f05:	49 81 c5 08 10 08 00 	add    $0x81008,%r13
  404f0c:	4c 89 ee             	mov    %r13,%rsi
  404f0f:	4c 89 f2             	mov    %r14,%rdx
  404f12:	e8 a9 01 00 00       	callq  4050c0 <_ZN11__sanitizer18LargeMmapAllocatorINS_20NoOpMapUnmapCallbackENS_32LargeMmapAllocatorPtrArrayStaticENS_21LocalAddressSpaceViewEE10DeallocateEPNS_14AllocatorStatsEPv>
  404f17:	eb 60                	jmp    404f79 <_ZN11__sanitizer17CombinedAllocatorINS_20SizeClassAllocator32INS_4AP32EEENS_32LargeMmapAllocatorPtrArrayStaticEE10ReallocateEPNS_30SizeClassAllocator32LocalCacheIS3_EEPvmm+0x189>
  404f19:	49 39 c6             	cmp    %rax,%r14
  404f1c:	77 2d                	ja     404f4b <_ZN11__sanitizer17CombinedAllocatorINS_20SizeClassAllocator32INS_4AP32EEENS_32LargeMmapAllocatorPtrArrayStaticEE10ReallocateEPNS_30SizeClassAllocator32LocalCacheIS3_EEPvmm+0x15b>
  404f1e:	4c 89 f0             	mov    %r14,%rax
  404f21:	48 c1 e8 20          	shr    $0x20,%rax
  404f25:	49 8b 54 c5 00       	mov    0x0(%r13,%rax,8),%rdx
  404f2a:	48 85 d2             	test   %rdx,%rdx
  404f2d:	74 1c                	je     404f4b <_ZN11__sanitizer17CombinedAllocatorINS_20SizeClassAllocator32INS_4AP32EEENS_32LargeMmapAllocatorPtrArrayStaticEE10ReallocateEPNS_30SizeClassAllocator32LocalCacheIS3_EEPvmm+0x15b>
  404f2f:	44 89 f1             	mov    %r14d,%ecx
  404f32:	c1 e9 14             	shr    $0x14,%ecx
  404f35:	80 3c 0a 00          	cmpb   $0x0,(%rdx,%rcx,1)
  404f39:	74 10                	je     404f4b <_ZN11__sanitizer17CombinedAllocatorINS_20SizeClassAllocator32INS_4AP32EEENS_32LargeMmapAllocatorPtrArrayStaticEE10ReallocateEPNS_30SizeClassAllocator32LocalCacheIS3_EEPvmm+0x15b>
  404f3b:	49 8b 44 c5 00       	mov    0x0(%r13,%rax,8),%rax
  404f40:	48 85 c0             	test   %rax,%rax
  404f43:	74 46                	je     404f8b <_ZN11__sanitizer17CombinedAllocatorINS_20SizeClassAllocator32INS_4AP32EEENS_32LargeMmapAllocatorPtrArrayStaticEE10ReallocateEPNS_30SizeClassAllocator32LocalCacheIS3_EEPvmm+0x19b>
  404f45:	0f b6 14 08          	movzbl (%rax,%rcx,1),%edx
  404f49:	eb 42                	jmp    404f8d <_ZN11__sanitizer17CombinedAllocatorINS_20SizeClassAllocator32INS_4AP32EEENS_32LargeMmapAllocatorPtrArrayStaticEE10ReallocateEPNS_30SizeClassAllocator32LocalCacheIS3_EEPvmm+0x19d>
  404f4b:	49 8d bd c0 0d 04 00 	lea    0x40dc0(%r13),%rdi
  404f52:	49 81 c5 08 10 08 00 	add    $0x81008,%r13
  404f59:	4c 89 ee             	mov    %r13,%rsi
  404f5c:	4c 89 f2             	mov    %r14,%rdx
  404f5f:	e8 5c 01 00 00       	callq  4050c0 <_ZN11__sanitizer18LargeMmapAllocatorINS_20NoOpMapUnmapCallbackENS_32LargeMmapAllocatorPtrArrayStaticENS_21LocalAddressSpaceViewEE10DeallocateEPNS_14AllocatorStatsEPv>
  404f64:	45 31 e4             	xor    %r12d,%r12d
  404f67:	eb 10                	jmp    404f79 <_ZN11__sanitizer17CombinedAllocatorINS_20SizeClassAllocator32INS_4AP32EEENS_32LargeMmapAllocatorPtrArrayStaticEE10ReallocateEPNS_30SizeClassAllocator32LocalCacheIS3_EEPvmm+0x189>
  404f69:	31 d2                	xor    %edx,%edx
  404f6b:	4c 89 ff             	mov    %r15,%rdi
  404f6e:	4c 89 ee             	mov    %r13,%rsi
  404f71:	4c 89 f1             	mov    %r14,%rcx
  404f74:	e8 b7 f8 ff ff       	callq  404830 <_ZN11__sanitizer30SizeClassAllocator32LocalCacheINS_20SizeClassAllocator32INS_4AP32EEEE10DeallocateEPS3_mPv>
  404f79:	4c 89 e0             	mov    %r12,%rax
  404f7c:	48 83 c4 08          	add    $0x8,%rsp
  404f80:	5b                   	pop    %rbx
  404f81:	41 5c                	pop    %r12
  404f83:	41 5d                	pop    %r13
  404f85:	41 5e                	pop    %r14
  404f87:	41 5f                	pop    %r15
  404f89:	5d                   	pop    %rbp
  404f8a:	c3                   	retq   
  404f8b:	31 d2                	xor    %edx,%edx
  404f8d:	4c 89 ff             	mov    %r15,%rdi
  404f90:	4c 89 ee             	mov    %r13,%rsi
  404f93:	4c 89 f1             	mov    %r14,%rcx
  404f96:	e8 95 f8 ff ff       	callq  404830 <_ZN11__sanitizer30SizeClassAllocator32LocalCacheINS_20SizeClassAllocator32INS_4AP32EEEE10DeallocateEPS3_mPv>
  404f9b:	eb c7                	jmp    404f64 <_ZN11__sanitizer17CombinedAllocatorINS_20SizeClassAllocator32INS_4AP32EEENS_32LargeMmapAllocatorPtrArrayStaticEE10ReallocateEPNS_30SizeClassAllocator32LocalCacheIS3_EEPvmm+0x174>
  404f9d:	48 8d 3d 0e f3 01 00 	lea    0x1f30e(%rip),%rdi        # 4242b2 <_IO_stdin_used+0x2b2>
  404fa4:	48 8d 15 52 f9 01 00 	lea    0x1f952(%rip),%rdx        # 4248fd <_IO_stdin_used+0x8fd>
  404fab:	be 69 00 00 00       	mov    $0x69,%esi
  404fb0:	31 c9                	xor    %ecx,%ecx
  404fb2:	45 31 c0             	xor    %r8d,%r8d
  404fb5:	e8 a6 e8 00 00       	callq  413860 <_ZN11__sanitizer11CheckFailedEPKciS1_yy>
  404fba:	66 0f 1f 44 00 00    	nopw   0x0(%rax,%rax,1)

0000000000404fc0 <_ZN11__sanitizer17CombinedAllocatorINS_20SizeClassAllocator32INS_4AP32EEENS_32LargeMmapAllocatorPtrArrayStaticEE24GetActuallyAllocatedSizeEPv>:
  404fc0:	50                   	push   %rax
  404fc1:	48 89 f0             	mov    %rsi,%rax
  404fc4:	48 c1 e8 2f          	shr    $0x2f,%rax
  404fc8:	75 78                	jne    405042 <_ZN11__sanitizer17CombinedAllocatorINS_20SizeClassAllocator32INS_4AP32EEENS_32LargeMmapAllocatorPtrArrayStaticEE24GetActuallyAllocatedSizeEPv+0x82>
  404fca:	48 89 f0             	mov    %rsi,%rax
  404fcd:	48 c1 e8 20          	shr    $0x20,%rax
  404fd1:	48 8b 14 c7          	mov    (%rdi,%rax,8),%rdx
  404fd5:	48 85 d2             	test   %rdx,%rdx
  404fd8:	74 68                	je     405042 <_ZN11__sanitizer17CombinedAllocatorINS_20SizeClassAllocator32INS_4AP32EEENS_32LargeMmapAllocatorPtrArrayStaticEE24GetActuallyAllocatedSizeEPv+0x82>
  404fda:	89 f1                	mov    %esi,%ecx
  404fdc:	c1 e9 14             	shr    $0x14,%ecx
  404fdf:	80 3c 0a 00          	cmpb   $0x0,(%rdx,%rcx,1)
  404fe3:	74 5d                	je     405042 <_ZN11__sanitizer17CombinedAllocatorINS_20SizeClassAllocator32INS_4AP32EEENS_32LargeMmapAllocatorPtrArrayStaticEE24GetActuallyAllocatedSizeEPv+0x82>
  404fe5:	48 8b 14 c7          	mov    (%rdi,%rax,8),%rdx
  404fe9:	48 85 d2             	test   %rdx,%rdx
  404fec:	0f 84 a5 00 00 00    	je     405097 <_ZN11__sanitizer17CombinedAllocatorINS_20SizeClassAllocator32INS_4AP32EEENS_32LargeMmapAllocatorPtrArrayStaticEE24GetActuallyAllocatedSizeEPv+0xd7>
  404ff2:	80 3c 0a 00          	cmpb   $0x0,(%rdx,%rcx,1)
  404ff6:	0f 84 9b 00 00 00    	je     405097 <_ZN11__sanitizer17CombinedAllocatorINS_20SizeClassAllocator32INS_4AP32EEENS_32LargeMmapAllocatorPtrArrayStaticEE24GetActuallyAllocatedSizeEPv+0xd7>
  404ffc:	48 8b 04 c7          	mov    (%rdi,%rax,8),%rax
  405000:	48 85 c0             	test   %rax,%rax
  405003:	74 61                	je     405066 <_ZN11__sanitizer17CombinedAllocatorINS_20SizeClassAllocator32INS_4AP32EEENS_32LargeMmapAllocatorPtrArrayStaticEE24GetActuallyAllocatedSizeEPv+0xa6>
  405005:	0f b6 14 08          	movzbl (%rax,%rcx,1),%edx
  405009:	b8 00 02 00 00       	mov    $0x200,%eax
  40500e:	48 83 fa 35          	cmp    $0x35,%rdx
  405012:	74 50                	je     405064 <_ZN11__sanitizer17CombinedAllocatorINS_20SizeClassAllocator32INS_4AP32EEENS_32LargeMmapAllocatorPtrArrayStaticEE24GetActuallyAllocatedSizeEPv+0xa4>
  405014:	80 fa 10             	cmp    $0x10,%dl
  405017:	76 4f                	jbe    405068 <_ZN11__sanitizer17CombinedAllocatorINS_20SizeClassAllocator32INS_4AP32EEENS_32LargeMmapAllocatorPtrArrayStaticEE24GetActuallyAllocatedSizeEPv+0xa8>
  405019:	48 83 c2 f0          	add    $0xfffffffffffffff0,%rdx
  40501d:	48 89 d1             	mov    %rdx,%rcx
  405020:	48 c1 e9 02          	shr    $0x2,%rcx
  405024:	b8 00 01 00 00       	mov    $0x100,%eax
  405029:	48 d3 e0             	shl    %cl,%rax
  40502c:	48 89 c1             	mov    %rax,%rcx
  40502f:	48 c1 e9 02          	shr    $0x2,%rcx
  405033:	83 e2 03             	and    $0x3,%edx
  405036:	48 0f af d1          	imul   %rcx,%rdx
  40503a:	48 01 c2             	add    %rax,%rdx
  40503d:	48 89 d0             	mov    %rdx,%rax
  405040:	59                   	pop    %rcx
  405041:	c3                   	retq   
  405042:	48 8b 87 c0 0d 04 00 	mov    0x40dc0(%rdi),%rax
  405049:	48 8d 48 ff          	lea    -0x1(%rax),%rcx
  40504d:	48 85 f1             	test   %rsi,%rcx
  405050:	75 1f                	jne    405071 <_ZN11__sanitizer17CombinedAllocatorINS_20SizeClassAllocator32INS_4AP32EEENS_32LargeMmapAllocatorPtrArrayStaticEE24GetActuallyAllocatedSizeEPv+0xb1>
  405052:	48 85 c8             	test   %rcx,%rax
  405055:	75 2f                	jne    405086 <_ZN11__sanitizer17CombinedAllocatorINS_20SizeClassAllocator32INS_4AP32EEENS_32LargeMmapAllocatorPtrArrayStaticEE24GetActuallyAllocatedSizeEPv+0xc6>
  405057:	48 29 c6             	sub    %rax,%rsi
  40505a:	48 03 4e 10          	add    0x10(%rsi),%rcx
  40505e:	48 f7 d8             	neg    %rax
  405061:	48 21 c8             	and    %rcx,%rax
  405064:	59                   	pop    %rcx
  405065:	c3                   	retq   
  405066:	31 d2                	xor    %edx,%edx
  405068:	48 c1 e2 04          	shl    $0x4,%rdx
  40506c:	48 89 d0             	mov    %rdx,%rax
  40506f:	59                   	pop    %rcx
  405070:	c3                   	retq   
  405071:	48 8d 3d 6c f6 01 00 	lea    0x1f66c(%rip),%rdi        # 4246e4 <_IO_stdin_used+0x6e4>
  405078:	48 8d 15 f1 f7 01 00 	lea    0x1f7f1(%rip),%rdx        # 424870 <_IO_stdin_used+0x870>
  40507f:	be 2d 01 00 00       	mov    $0x12d,%esi
  405084:	eb 24                	jmp    4050aa <_ZN11__sanitizer17CombinedAllocatorINS_20SizeClassAllocator32INS_4AP32EEENS_32LargeMmapAllocatorPtrArrayStaticEE24GetActuallyAllocatedSizeEPv+0xea>
  405086:	48 8d 3d 58 f9 01 00 	lea    0x1f958(%rip),%rdi        # 4249e5 <_IO_stdin_used+0x9e5>
  40508d:	e8 9e 2e 00 00       	callq  407f30 <_ZN11__sanitizer8RawWriteEPKc>
  405092:	e8 e9 e6 00 00       	callq  413780 <_ZN11__sanitizer3DieEv>
  405097:	48 8d 3d 0f f4 01 00 	lea    0x1f40f(%rip),%rdi        # 4244ad <_IO_stdin_used+0x4ad>
  40509e:	48 8d 15 58 f8 01 00 	lea    0x1f858(%rip),%rdx        # 4248fd <_IO_stdin_used+0x8fd>
  4050a5:	be d7 00 00 00       	mov    $0xd7,%esi
  4050aa:	31 c9                	xor    %ecx,%ecx
  4050ac:	45 31 c0             	xor    %r8d,%r8d
  4050af:	e8 ac e7 00 00       	callq  413860 <_ZN11__sanitizer11CheckFailedEPKciS1_yy>
  4050b4:	66 2e 0f 1f 84 00 00 	nopw   %cs:0x0(%rax,%rax,1)
  4050bb:	00 00 00 
  4050be:	66 90                	xchg   %ax,%ax

00000000004050c0 <_ZN11__sanitizer18LargeMmapAllocatorINS_20NoOpMapUnmapCallbackENS_32LargeMmapAllocatorPtrArrayStaticENS_21LocalAddressSpaceViewEE10DeallocateEPNS_14AllocatorStatsEPv>:
  4050c0:	41 57                	push   %r15
  4050c2:	41 56                	push   %r14
  4050c4:	53                   	push   %rbx
  4050c5:	48 8b 07             	mov    (%rdi),%rax
  4050c8:	48 8d 48 ff          	lea    -0x1(%rax),%rcx
  4050cc:	48 85 d1             	test   %rdx,%rcx
  4050cf:	0f 85 a3 00 00 00    	jne    405178 <_ZN11__sanitizer18LargeMmapAllocatorINS_20NoOpMapUnmapCallbackENS_32LargeMmapAllocatorPtrArrayStaticENS_21LocalAddressSpaceViewEE10DeallocateEPNS_14AllocatorStatsEPv+0xb8>
  4050d5:	49 89 d6             	mov    %rdx,%r14
  4050d8:	49 89 f7             	mov    %rsi,%r15
  4050db:	48 89 fb             	mov    %rdi,%rbx
  4050de:	49 29 c6             	sub    %rax,%r14
  4050e1:	b0 01                	mov    $0x1,%al
  4050e3:	86 87 40 02 04 00    	xchg   %al,0x40240(%rdi)
  4050e9:	84 c0                	test   %al,%al
  4050eb:	74 0c                	je     4050f9 <_ZN11__sanitizer18LargeMmapAllocatorINS_20NoOpMapUnmapCallbackENS_32LargeMmapAllocatorPtrArrayStaticENS_21LocalAddressSpaceViewEE10DeallocateEPNS_14AllocatorStatsEPv+0x39>
  4050ed:	48 8d bb 40 02 04 00 	lea    0x40240(%rbx),%rdi
  4050f4:	e8 67 02 00 00       	callq  405360 <_ZN11__sanitizer15StaticSpinMutex8LockSlowEv>
  4050f9:	49 8b 4e 18          	mov    0x18(%r14),%rcx
  4050fd:	48 8b 53 08          	mov    0x8(%rbx),%rdx
  405101:	48 8b 04 ca          	mov    (%rdx,%rcx,8),%rax
  405105:	4c 39 f0             	cmp    %r14,%rax
  405108:	0f 85 87 00 00 00    	jne    405195 <_ZN11__sanitizer18LargeMmapAllocatorINS_20NoOpMapUnmapCallbackENS_32LargeMmapAllocatorPtrArrayStaticENS_21LocalAddressSpaceViewEE10DeallocateEPNS_14AllocatorStatsEPv+0xd5>
  40510e:	4c 8b 83 10 00 04 00 	mov    0x40010(%rbx),%r8
  405115:	4c 39 c1             	cmp    %r8,%rcx
  405118:	0f 83 95 00 00 00    	jae    4051b3 <_ZN11__sanitizer18LargeMmapAllocatorINS_20NoOpMapUnmapCallbackENS_32LargeMmapAllocatorPtrArrayStaticENS_21LocalAddressSpaceViewEE10DeallocateEPNS_14AllocatorStatsEPv+0xf3>
  40511e:	49 8d 40 ff          	lea    -0x1(%r8),%rax
  405122:	48 89 83 10 00 04 00 	mov    %rax,0x40010(%rbx)
  405129:	4a 8b 44 c2 f8       	mov    -0x8(%rdx,%r8,8),%rax
  40512e:	48 89 04 ca          	mov    %rax,(%rdx,%rcx,8)
  405132:	48 8b 43 08          	mov    0x8(%rbx),%rax
  405136:	48 8b 04 c8          	mov    (%rax,%rcx,8),%rax
  40513a:	48 89 48 18          	mov    %rcx,0x18(%rax)
  40513e:	c6 83 18 00 04 00 00 	movb   $0x0,0x40018(%rbx)
  405145:	48 83 83 28 00 04 00 	addq   $0x1,0x40028(%rbx)
  40514c:	01 
  40514d:	49 8b 46 08          	mov    0x8(%r14),%rax
  405151:	48 29 83 30 00 04 00 	sub    %rax,0x40030(%rbx)
  405158:	49 29 47 10          	sub    %rax,0x10(%r15)
  40515c:	49 29 47 18          	sub    %rax,0x18(%r15)
  405160:	c6 83 40 02 04 00 00 	movb   $0x0,0x40240(%rbx)
  405167:	49 8b 3e             	mov    (%r14),%rdi
  40516a:	49 8b 76 08          	mov    0x8(%r14),%rsi
  40516e:	5b                   	pop    %rbx
  40516f:	41 5e                	pop    %r14
  405171:	41 5f                	pop    %r15
  405173:	e9 e8 97 00 00       	jmpq   40e960 <_ZN11__sanitizer10UnmapOrDieEPvm>
  405178:	48 8d 3d 65 f5 01 00 	lea    0x1f565(%rip),%rdi        # 4246e4 <_IO_stdin_used+0x6e4>
  40517f:	48 8d 15 ea f6 01 00 	lea    0x1f6ea(%rip),%rdx        # 424870 <_IO_stdin_used+0x870>
  405186:	be 2d 01 00 00       	mov    $0x12d,%esi
  40518b:	31 c9                	xor    %ecx,%ecx
  40518d:	45 31 c0             	xor    %r8d,%r8d
  405190:	e8 cb e6 00 00       	callq  413860 <_ZN11__sanitizer11CheckFailedEPKciS1_yy>
  405195:	48 8d 3d 48 f5 01 00 	lea    0x1f548(%rip),%rdi        # 4246e4 <_IO_stdin_used+0x6e4>
  40519c:	48 8d 15 76 f7 01 00 	lea    0x1f776(%rip),%rdx        # 424919 <_IO_stdin_used+0x919>
  4051a3:	be 8b 00 00 00       	mov    $0x8b,%esi
  4051a8:	48 89 c1             	mov    %rax,%rcx
  4051ab:	4d 89 f0             	mov    %r14,%r8
  4051ae:	e8 ad e6 00 00       	callq  413860 <_ZN11__sanitizer11CheckFailedEPKciS1_yy>
  4051b3:	48 8d 3d 2a f5 01 00 	lea    0x1f52a(%rip),%rdi        # 4246e4 <_IO_stdin_used+0x6e4>
  4051ba:	48 8d 15 72 f7 01 00 	lea    0x1f772(%rip),%rdx        # 424933 <_IO_stdin_used+0x933>
  4051c1:	be 8c 00 00 00       	mov    $0x8c,%esi
  4051c6:	e8 95 e6 00 00       	callq  413860 <_ZN11__sanitizer11CheckFailedEPKciS1_yy>
  4051cb:	0f 1f 44 00 00       	nopl   0x0(%rax,%rax,1)

00000000004051d0 <_ZN11__sanitizer18LargeMmapAllocatorINS_20NoOpMapUnmapCallbackENS_32LargeMmapAllocatorPtrArrayStaticENS_21LocalAddressSpaceViewEE13GetBlockBeginEPKv>:
  4051d0:	41 57                	push   %r15
  4051d2:	41 56                	push   %r14
  4051d4:	41 54                	push   %r12
  4051d6:	53                   	push   %rbx
  4051d7:	50                   	push   %rax
  4051d8:	49 89 f4             	mov    %rsi,%r12
  4051db:	49 89 ff             	mov    %rdi,%r15
  4051de:	4c 8d b7 40 02 04 00 	lea    0x40240(%rdi),%r14
  4051e5:	b0 01                	mov    $0x1,%al
  4051e7:	86 87 40 02 04 00    	xchg   %al,0x40240(%rdi)
  4051ed:	84 c0                	test   %al,%al
  4051ef:	74 08                	je     4051f9 <_ZN11__sanitizer18LargeMmapAllocatorINS_20NoOpMapUnmapCallbackENS_32LargeMmapAllocatorPtrArrayStaticENS_21LocalAddressSpaceViewEE13GetBlockBeginEPKv+0x29>
  4051f1:	4c 89 f7             	mov    %r14,%rdi
  4051f4:	e8 67 01 00 00       	callq  405360 <_ZN11__sanitizer15StaticSpinMutex8LockSlowEv>
  4051f9:	4d 8b 8f 10 00 04 00 	mov    0x40010(%r15),%r9
  405200:	4d 85 c9             	test   %r9,%r9
  405203:	74 7c                	je     405281 <_ZN11__sanitizer18LargeMmapAllocatorINS_20NoOpMapUnmapCallbackENS_32LargeMmapAllocatorPtrArrayStaticENS_21LocalAddressSpaceViewEE13GetBlockBeginEPKv+0xb1>
  405205:	4d 8b 57 08          	mov    0x8(%r15),%r10
  405209:	45 89 c8             	mov    %r9d,%r8d
  40520c:	41 83 e0 01          	and    $0x1,%r8d
  405210:	49 83 f9 01          	cmp    $0x1,%r9
  405214:	75 7d                	jne    405293 <_ZN11__sanitizer18LargeMmapAllocatorINS_20NoOpMapUnmapCallbackENS_32LargeMmapAllocatorPtrArrayStaticENS_21LocalAddressSpaceViewEE13GetBlockBeginEPKv+0xc3>
  405216:	31 c9                	xor    %ecx,%ecx
  405218:	31 ff                	xor    %edi,%edi
  40521a:	4d 85 c0             	test   %r8,%r8
  40521d:	74 21                	je     405240 <_ZN11__sanitizer18LargeMmapAllocatorINS_20NoOpMapUnmapCallbackENS_32LargeMmapAllocatorPtrArrayStaticENS_21LocalAddressSpaceViewEE13GetBlockBeginEPKv+0x70>
  40521f:	49 8b 04 fa          	mov    (%r10,%rdi,8),%rax
  405223:	4c 89 e2             	mov    %r12,%rdx
  405226:	48 29 c2             	sub    %rax,%rdx
  405229:	4c 89 e6             	mov    %r12,%rsi
  40522c:	48 29 ce             	sub    %rcx,%rsi
  40522f:	48 39 f2             	cmp    %rsi,%rdx
  405232:	48 89 ca             	mov    %rcx,%rdx
  405235:	48 0f 42 d0          	cmovb  %rax,%rdx
  405239:	49 39 c4             	cmp    %rax,%r12
  40523c:	48 0f 43 ca          	cmovae %rdx,%rcx
  405240:	48 85 c9             	test   %rcx,%rcx
  405243:	74 3c                	je     405281 <_ZN11__sanitizer18LargeMmapAllocatorINS_20NoOpMapUnmapCallbackENS_32LargeMmapAllocatorPtrArrayStaticENS_21LocalAddressSpaceViewEE13GetBlockBeginEPKv+0xb1>
  405245:	4c 8b 01             	mov    (%rcx),%r8
  405248:	4c 39 c1             	cmp    %r8,%rcx
  40524b:	0f 82 a3 00 00 00    	jb     4052f4 <_ZN11__sanitizer18LargeMmapAllocatorINS_20NoOpMapUnmapCallbackENS_32LargeMmapAllocatorPtrArrayStaticENS_21LocalAddressSpaceViewEE13GetBlockBeginEPKv+0x124>
  405251:	4c 03 41 08          	add    0x8(%rcx),%r8
  405255:	4c 39 c1             	cmp    %r8,%rcx
  405258:	0f 83 ae 00 00 00    	jae    40530c <_ZN11__sanitizer18LargeMmapAllocatorINS_20NoOpMapUnmapCallbackENS_32LargeMmapAllocatorPtrArrayStaticENS_21LocalAddressSpaceViewEE13GetBlockBeginEPKv+0x13c>
  40525e:	4c 39 e1             	cmp    %r12,%rcx
  405261:	0f 87 bd 00 00 00    	ja     405324 <_ZN11__sanitizer18LargeMmapAllocatorINS_20NoOpMapUnmapCallbackENS_32LargeMmapAllocatorPtrArrayStaticENS_21LocalAddressSpaceViewEE13GetBlockBeginEPKv+0x154>
  405267:	4d 39 e0             	cmp    %r12,%r8
  40526a:	76 15                	jbe    405281 <_ZN11__sanitizer18LargeMmapAllocatorINS_20NoOpMapUnmapCallbackENS_32LargeMmapAllocatorPtrArrayStaticENS_21LocalAddressSpaceViewEE13GetBlockBeginEPKv+0xb1>
  40526c:	49 8b 07             	mov    (%r15),%rax
  40526f:	48 8d 50 ff          	lea    -0x1(%rax),%rdx
  405273:	48 85 ca             	test   %rcx,%rdx
  405276:	0f 85 c3 00 00 00    	jne    40533f <_ZN11__sanitizer18LargeMmapAllocatorINS_20NoOpMapUnmapCallbackENS_32LargeMmapAllocatorPtrArrayStaticENS_21LocalAddressSpaceViewEE13GetBlockBeginEPKv+0x16f>
  40527c:	48 01 c8             	add    %rcx,%rax
  40527f:	eb 02                	jmp    405283 <_ZN11__sanitizer18LargeMmapAllocatorINS_20NoOpMapUnmapCallbackENS_32LargeMmapAllocatorPtrArrayStaticENS_21LocalAddressSpaceViewEE13GetBlockBeginEPKv+0xb3>
  405281:	31 c0                	xor    %eax,%eax
  405283:	41 c6 06 00          	movb   $0x0,(%r14)
  405287:	48 83 c4 08          	add    $0x8,%rsp
  40528b:	5b                   	pop    %rbx
  40528c:	41 5c                	pop    %r12
  40528e:	41 5e                	pop    %r14
  405290:	41 5f                	pop    %r15
  405292:	c3                   	retq   
  405293:	4d 29 c1             	sub    %r8,%r9
  405296:	31 c9                	xor    %ecx,%ecx
  405298:	31 ff                	xor    %edi,%edi
  40529a:	eb 18                	jmp    4052b4 <_ZN11__sanitizer18LargeMmapAllocatorINS_20NoOpMapUnmapCallbackENS_32LargeMmapAllocatorPtrArrayStaticENS_21LocalAddressSpaceViewEE13GetBlockBeginEPKv+0xe4>
  40529c:	0f 1f 40 00          	nopl   0x0(%rax)
  4052a0:	4d 39 dc             	cmp    %r11,%r12
  4052a3:	48 0f 42 ce          	cmovb  %rsi,%rcx
  4052a7:	48 83 c7 02          	add    $0x2,%rdi
  4052ab:	49 39 f9             	cmp    %rdi,%r9
  4052ae:	0f 84 66 ff ff ff    	je     40521a <_ZN11__sanitizer18LargeMmapAllocatorINS_20NoOpMapUnmapCallbackENS_32LargeMmapAllocatorPtrArrayStaticENS_21LocalAddressSpaceViewEE13GetBlockBeginEPKv+0x4a>
  4052b4:	49 8b 04 fa          	mov    (%r10,%rdi,8),%rax
  4052b8:	4d 8b 5c fa 08       	mov    0x8(%r10,%rdi,8),%r11
  4052bd:	4c 89 e3             	mov    %r12,%rbx
  4052c0:	48 29 c3             	sub    %rax,%rbx
  4052c3:	4c 89 e2             	mov    %r12,%rdx
  4052c6:	48 29 ca             	sub    %rcx,%rdx
  4052c9:	48 89 c6             	mov    %rax,%rsi
  4052cc:	48 39 d3             	cmp    %rdx,%rbx
  4052cf:	72 03                	jb     4052d4 <_ZN11__sanitizer18LargeMmapAllocatorINS_20NoOpMapUnmapCallbackENS_32LargeMmapAllocatorPtrArrayStaticENS_21LocalAddressSpaceViewEE13GetBlockBeginEPKv+0x104>
  4052d1:	48 89 ce             	mov    %rcx,%rsi
  4052d4:	49 39 c4             	cmp    %rax,%r12
  4052d7:	48 0f 42 f1          	cmovb  %rcx,%rsi
  4052db:	4c 89 e0             	mov    %r12,%rax
  4052de:	4c 29 d8             	sub    %r11,%rax
  4052e1:	4c 89 e2             	mov    %r12,%rdx
  4052e4:	48 29 f2             	sub    %rsi,%rdx
  4052e7:	4c 89 d9             	mov    %r11,%rcx
  4052ea:	48 39 d0             	cmp    %rdx,%rax
  4052ed:	72 b1                	jb     4052a0 <_ZN11__sanitizer18LargeMmapAllocatorINS_20NoOpMapUnmapCallbackENS_32LargeMmapAllocatorPtrArrayStaticENS_21LocalAddressSpaceViewEE13GetBlockBeginEPKv+0xd0>
  4052ef:	48 89 f1             	mov    %rsi,%rcx
  4052f2:	eb ac                	jmp    4052a0 <_ZN11__sanitizer18LargeMmapAllocatorINS_20NoOpMapUnmapCallbackENS_32LargeMmapAllocatorPtrArrayStaticENS_21LocalAddressSpaceViewEE13GetBlockBeginEPKv+0xd0>
  4052f4:	48 8d 3d e9 f3 01 00 	lea    0x1f3e9(%rip),%rdi        # 4246e4 <_IO_stdin_used+0x6e4>
  4052fb:	48 8d 15 49 f6 01 00 	lea    0x1f649(%rip),%rdx        # 42494b <_IO_stdin_used+0x94b>
  405302:	be c7 00 00 00       	mov    $0xc7,%esi
  405307:	e8 54 e5 00 00       	callq  413860 <_ZN11__sanitizer11CheckFailedEPKciS1_yy>
  40530c:	48 8d 3d d1 f3 01 00 	lea    0x1f3d1(%rip),%rdi        # 4246e4 <_IO_stdin_used+0x6e4>
  405313:	48 8d 15 55 f6 01 00 	lea    0x1f655(%rip),%rdx        # 42496f <_IO_stdin_used+0x96f>
  40531a:	be c8 00 00 00       	mov    $0xc8,%esi
  40531f:	e8 3c e5 00 00       	callq  413860 <_ZN11__sanitizer11CheckFailedEPKciS1_yy>
  405324:	48 8d 3d b9 f3 01 00 	lea    0x1f3b9(%rip),%rdi        # 4246e4 <_IO_stdin_used+0x6e4>
  40532b:	48 8d 15 6e f6 01 00 	lea    0x1f66e(%rip),%rdx        # 4249a0 <_IO_stdin_used+0x9a0>
  405332:	be c9 00 00 00       	mov    $0xc9,%esi
  405337:	4d 89 e0             	mov    %r12,%r8
  40533a:	e8 21 e5 00 00       	callq  413860 <_ZN11__sanitizer11CheckFailedEPKciS1_yy>
  40533f:	48 8d 3d 9e f3 01 00 	lea    0x1f39e(%rip),%rdi        # 4246e4 <_IO_stdin_used+0x6e4>
  405346:	48 8d 15 6e f6 01 00 	lea    0x1f66e(%rip),%rdx        # 4249bb <_IO_stdin_used+0x9bb>
  40534d:	be 35 01 00 00       	mov    $0x135,%esi
  405352:	31 c9                	xor    %ecx,%ecx
  405354:	45 31 c0             	xor    %r8d,%r8d
  405357:	e8 04 e5 00 00       	callq  413860 <_ZN11__sanitizer11CheckFailedEPKciS1_yy>
  40535c:	0f 1f 40 00          	nopl   0x0(%rax)

0000000000405360 <_ZN11__sanitizer15StaticSpinMutex8LockSlowEv>:
  405360:	55                   	push   %rbp
  405361:	53                   	push   %rbx
  405362:	50                   	push   %rax
  405363:	48 89 fb             	mov    %rdi,%rbx
  405366:	31 ed                	xor    %ebp,%ebp
  405368:	eb 09                	jmp    405373 <_ZN11__sanitizer15StaticSpinMutex8LockSlowEv+0x13>
  40536a:	66 0f 1f 44 00 00    	nopw   0x0(%rax,%rax,1)
  405370:	83 c5 01             	add    $0x1,%ebp
  405373:	83 fd 09             	cmp    $0x9,%ebp
  405376:	77 28                	ja     4053a0 <_ZN11__sanitizer15StaticSpinMutex8LockSlowEv+0x40>
  405378:	f3 90                	pause  
  40537a:	f3 90                	pause  
  40537c:	f3 90                	pause  
  40537e:	f3 90                	pause  
  405380:	f3 90                	pause  
  405382:	f3 90                	pause  
  405384:	f3 90                	pause  
  405386:	f3 90                	pause  
  405388:	f3 90                	pause  
  40538a:	f3 90                	pause  
  40538c:	80 3b 00             	cmpb   $0x0,(%rbx)
  40538f:	75 df                	jne    405370 <_ZN11__sanitizer15StaticSpinMutex8LockSlowEv+0x10>
  405391:	eb 17                	jmp    4053aa <_ZN11__sanitizer15StaticSpinMutex8LockSlowEv+0x4a>
  405393:	66 2e 0f 1f 84 00 00 	nopw   %cs:0x0(%rax,%rax,1)
  40539a:	00 00 00 
  40539d:	0f 1f 00             	nopl   (%rax)
  4053a0:	e8 fb 7d 00 00       	callq  40d1a0 <_ZN11__sanitizer20internal_sched_yieldEv>
  4053a5:	80 3b 00             	cmpb   $0x0,(%rbx)
  4053a8:	75 c6                	jne    405370 <_ZN11__sanitizer15StaticSpinMutex8LockSlowEv+0x10>
  4053aa:	b0 01                	mov    $0x1,%al
  4053ac:	86 03                	xchg   %al,(%rbx)
  4053ae:	84 c0                	test   %al,%al
  4053b0:	75 be                	jne    405370 <_ZN11__sanitizer15StaticSpinMutex8LockSlowEv+0x10>
  4053b2:	48 83 c4 08          	add    $0x8,%rsp
  4053b6:	5b                   	pop    %rbx
  4053b7:	5d                   	pop    %rbp
  4053b8:	c3                   	retq   
  4053b9:	0f 1f 00             	nopl   (%rax)
  4053bc:	0f 1f 40 00          	nopl   0x0(%rax)

00000000004053c0 <_ZN11__sanitizer23ReportMmapFailureAndDieEmPKcS1_ib>:
  4053c0:	50                   	push   %rax
  4053c1:	80 3d 18 31 0c 00 00 	cmpb   $0x0,0xc3118(%rip)        # 4c84e0 <_ZZN11__sanitizer23ReportMmapFailureAndDieEmPKcS1_ibE15recursion_count>
  4053c8:	75 52                	jne    40541c <_ZN11__sanitizer23ReportMmapFailureAndDieEmPKcS1_ib+0x5c>
  4053ca:	45 84 c0             	test   %r8b,%r8b
  4053cd:	75 4d                	jne    40541c <_ZN11__sanitizer23ReportMmapFailureAndDieEmPKcS1_ib+0x5c>
  4053cf:	49 89 f1             	mov    %rsi,%r9
  4053d2:	48 89 f8             	mov    %rdi,%rax
  4053d5:	c6 05 04 31 0c 00 01 	movb   $0x1,0xc3104(%rip)        # 4c84e0 <_ZZN11__sanitizer23ReportMmapFailureAndDieEmPKcS1_ibE15recursion_count>
  4053dc:	48 8b 35 a5 1d 03 00 	mov    0x31da5(%rip),%rsi        # 437188 <_ZN11__sanitizer17SanitizerToolNameE>
  4053e3:	89 0c 24             	mov    %ecx,(%rsp)
  4053e6:	48 8d 3d 34 f6 01 00 	lea    0x1f634(%rip),%rdi        # 424a21 <_IO_stdin_used+0xa21>
  4053ed:	48 89 c1             	mov    %rax,%rcx
  4053f0:	49 89 c0             	mov    %rax,%r8
  4053f3:	31 c0                	xor    %eax,%eax
  4053f5:	e8 66 ac 00 00       	callq  410060 <_ZN11__sanitizer6ReportEPKcz>
  4053fa:	e8 b1 9f 00 00       	callq  40f3b0 <_ZN11__sanitizer14DumpProcessMapEv>
  4053ff:	48 8d 3d 5c f6 01 00 	lea    0x1f65c(%rip),%rdi        # 424a62 <_IO_stdin_used+0xa62>
  405406:	48 8d 15 c4 f6 01 00 	lea    0x1f6c4(%rip),%rdx        # 424ad1 <_IO_stdin_used+0xad1>
  40540d:	be 36 00 00 00       	mov    $0x36,%esi
  405412:	31 c9                	xor    %ecx,%ecx
  405414:	45 31 c0             	xor    %r8d,%r8d
  405417:	e8 44 e4 00 00       	callq  413860 <_ZN11__sanitizer11CheckFailedEPKciS1_yy>
  40541c:	48 8d 3d e7 f5 01 00 	lea    0x1f5e7(%rip),%rdi        # 424a0a <_IO_stdin_used+0xa0a>
  405423:	e8 08 2b 00 00       	callq  407f30 <_ZN11__sanitizer8RawWriteEPKc>
  405428:	e8 53 e3 00 00       	callq  413780 <_ZN11__sanitizer3DieEv>
  40542d:	0f 1f 00             	nopl   (%rax)

0000000000405430 <_ZN11__sanitizer15StripPathPrefixEPKcS1_>:
  405430:	41 57                	push   %r15
  405432:	41 56                	push   %r14
  405434:	53                   	push   %rbx
  405435:	48 85 ff             	test   %rdi,%rdi
  405438:	74 43                	je     40547d <_ZN11__sanitizer15StripPathPrefixEPKcS1_+0x4d>
  40543a:	49 89 f6             	mov    %rsi,%r14
  40543d:	48 89 fb             	mov    %rdi,%rbx
  405440:	48 85 f6             	test   %rsi,%rsi
  405443:	74 3a                	je     40547f <_ZN11__sanitizer15StripPathPrefixEPKcS1_+0x4f>
  405445:	48 89 df             	mov    %rbx,%rdi
  405448:	4c 89 f6             	mov    %r14,%rsi
  40544b:	e8 10 70 00 00       	callq  40c460 <_ZN11__sanitizer15internal_strstrEPKcS1_>
  405450:	48 85 c0             	test   %rax,%rax
  405453:	74 11                	je     405466 <_ZN11__sanitizer15StripPathPrefixEPKcS1_+0x36>
  405455:	49 89 c7             	mov    %rax,%r15
  405458:	4c 89 f7             	mov    %r14,%rdi
  40545b:	e8 e0 60 00 00       	callq  40b540 <_ZN11__sanitizer15internal_strlenEPKc>
  405460:	49 01 c7             	add    %rax,%r15
  405463:	4c 89 fb             	mov    %r15,%rbx
  405466:	80 3b 2e             	cmpb   $0x2e,(%rbx)
  405469:	75 14                	jne    40547f <_ZN11__sanitizer15StripPathPrefixEPKcS1_+0x4f>
  40546b:	48 8d 43 02          	lea    0x2(%rbx),%rax
  40546f:	80 7b 01 2f          	cmpb   $0x2f,0x1(%rbx)
  405473:	48 0f 45 c3          	cmovne %rbx,%rax
  405477:	5b                   	pop    %rbx
  405478:	41 5e                	pop    %r14
  40547a:	41 5f                	pop    %r15
  40547c:	c3                   	retq   
  40547d:	31 db                	xor    %ebx,%ebx
  40547f:	48 89 d8             	mov    %rbx,%rax
  405482:	5b                   	pop    %rbx
  405483:	41 5e                	pop    %r14
  405485:	41 5f                	pop    %r15
  405487:	c3                   	retq   
  405488:	0f 1f 84 00 00 00 00 	nopl   0x0(%rax,%rax,1)
  40548f:	00 

0000000000405490 <_ZN11__sanitizer15StripModuleNameEPKc>:
  405490:	48 85 ff             	test   %rdi,%rdi
  405493:	74 1b                	je     4054b0 <_ZN11__sanitizer15StripModuleNameEPKc+0x20>
  405495:	53                   	push   %rbx
  405496:	48 89 fb             	mov    %rdi,%rbx
  405499:	be 2f 00 00 00       	mov    $0x2f,%esi
  40549e:	e8 8d 61 00 00       	callq  40b630 <_ZN11__sanitizer16internal_strrchrEPKci>
  4054a3:	48 85 c0             	test   %rax,%rax
  4054a6:	48 8d 40 01          	lea    0x1(%rax),%rax
  4054aa:	48 0f 44 c3          	cmove  %rbx,%rax
  4054ae:	5b                   	pop    %rbx
  4054af:	c3                   	retq   
  4054b0:	31 c0                	xor    %eax,%eax
  4054b2:	c3                   	retq   
  4054b3:	66 2e 0f 1f 84 00 00 	nopw   %cs:0x0(%rax,%rax,1)
  4054ba:	00 00 00 
  4054bd:	0f 1f 00             	nopl   (%rax)

00000000004054c0 <_ZN11__sanitizer18ReportErrorSummaryEPKcS1_>:
  4054c0:	41 57                	push   %r15
  4054c2:	41 56                	push   %r14
  4054c4:	53                   	push   %rbx
  4054c5:	48 83 ec 20          	sub    $0x20,%rsp
  4054c9:	48 8d 05 78 50 0c 00 	lea    0xc5078(%rip),%rax        # 4ca548 <_ZN11__sanitizer21common_flags_dont_useE>
  4054d0:	80 78 3c 00          	cmpb   $0x0,0x3c(%rax)
  4054d4:	0f 84 b5 00 00 00    	je     40558f <_ZN11__sanitizer18ReportErrorSummaryEPKcS1_+0xcf>
  4054da:	48 89 f3             	mov    %rsi,%rbx
  4054dd:	49 89 fe             	mov    %rdi,%r14
  4054e0:	0f 57 c0             	xorps  %xmm0,%xmm0
  4054e3:	0f 11 44 24 08       	movups %xmm0,0x8(%rsp)
  4054e8:	48 c7 04 24 00 00 00 	movq   $0x0,(%rsp)
  4054ef:	00 
  4054f0:	48 89 e7             	mov    %rsp,%rdi
  4054f3:	41 bf 00 04 00 00    	mov    $0x400,%r15d
  4054f9:	be 00 04 00 00       	mov    $0x400,%esi
  4054fe:	e8 cd 09 00 00       	callq  405ed0 <_ZN11__sanitizer24InternalMmapVectorNoCtorIcE7ReallocEm>
  405503:	48 8b 44 24 10       	mov    0x10(%rsp),%rax
  405508:	48 3d ff 03 00 00    	cmp    $0x3ff,%rax
  40550e:	77 33                	ja     405543 <_ZN11__sanitizer18ReportErrorSummaryEPKcS1_+0x83>
  405510:	48 81 7c 24 08 ff 03 	cmpq   $0x3ff,0x8(%rsp)
  405517:	00 00 
  405519:	77 12                	ja     40552d <_ZN11__sanitizer18ReportErrorSummaryEPKcS1_+0x6d>
  40551b:	48 89 e7             	mov    %rsp,%rdi
  40551e:	be 00 04 00 00       	mov    $0x400,%esi
  405523:	e8 a8 09 00 00       	callq  405ed0 <_ZN11__sanitizer24InternalMmapVectorNoCtorIcE7ReallocEm>
  405528:	48 8b 44 24 10       	mov    0x10(%rsp),%rax
  40552d:	48 8b 3c 24          	mov    (%rsp),%rdi
  405531:	48 01 c7             	add    %rax,%rdi
  405534:	ba 00 04 00 00       	mov    $0x400,%edx
  405539:	48 29 c2             	sub    %rax,%rdx
  40553c:	31 f6                	xor    %esi,%esi
  40553e:	e8 3d 5c 00 00       	callq  40b180 <_ZN11__sanitizer15internal_memsetEPvim>
  405543:	66 49 0f 6e c7       	movq   %r15,%xmm0
  405548:	f3 0f 7f 44 24 10    	movdqu %xmm0,0x10(%rsp)
  40554e:	48 8b 04 24          	mov    (%rsp),%rax
  405552:	c6 00 00             	movb   $0x0,(%rax)
  405555:	48 85 db             	test   %rbx,%rbx
  405558:	75 07                	jne    405561 <_ZN11__sanitizer18ReportErrorSummaryEPKcS1_+0xa1>
  40555a:	48 8b 1d 27 1c 03 00 	mov    0x31c27(%rip),%rbx        # 437188 <_ZN11__sanitizer17SanitizerToolNameE>
  405561:	48 8d 35 8a f5 01 00 	lea    0x1f58a(%rip),%rsi        # 424af2 <_IO_stdin_used+0xaf2>
  405568:	48 89 e7             	mov    %rsp,%rdi
  40556b:	48 89 da             	mov    %rbx,%rdx
  40556e:	4c 89 f1             	mov    %r14,%rcx
  405571:	31 c0                	xor    %eax,%eax
  405573:	e8 18 ac 00 00       	callq  410190 <_ZN11__sanitizer20InternalScopedString6appendEPKcz>
  405578:	48 8b 3c 24          	mov    (%rsp),%rdi
  40557c:	e8 1f 00 00 00       	callq  4055a0 <__sanitizer_report_error_summary>
  405581:	48 8b 3c 24          	mov    (%rsp),%rdi
  405585:	48 8b 74 24 08       	mov    0x8(%rsp),%rsi
  40558a:	e8 d1 93 00 00       	callq  40e960 <_ZN11__sanitizer10UnmapOrDieEPvm>
  40558f:	48 83 c4 20          	add    $0x20,%rsp
  405593:	5b                   	pop    %rbx
  405594:	41 5e                	pop    %r14
  405596:	41 5f                	pop    %r15
  405598:	c3                   	retq   
  405599:	0f 1f 80 00 00 00 00 	nopl   0x0(%rax)

00000000004055a0 <__sanitizer_report_error_summary>:
  4055a0:	48 89 fe             	mov    %rdi,%rsi
  4055a3:	48 8d 3d fd 2a 02 00 	lea    0x22afd(%rip),%rdi        # 4280a7 <_ZN11__sanitizer14si_SEGV_ACCERRE+0x1df>
  4055aa:	31 c0                	xor    %eax,%eax
  4055ac:	e9 ef a9 00 00       	jmpq   40ffa0 <_ZN11__sanitizer6PrintfEPKcz>
  4055b1:	66 2e 0f 1f 84 00 00 	nopw   %cs:0x0(%rax,%rax,1)
  4055b8:	00 00 00 
  4055bb:	0f 1f 44 00 00       	nopl   0x0(%rax,%rax,1)

00000000004055c0 <_ZN11__sanitizer35RemoveANSIEscapeSequencesFromStringEPc>:
  4055c0:	53                   	push   %rbx
  4055c1:	48 85 ff             	test   %rdi,%rdi
  4055c4:	74 68                	je     40562e <_ZN11__sanitizer35RemoveANSIEscapeSequencesFromStringEPc+0x6e>
  4055c6:	48 89 f8             	mov    %rdi,%rax
  4055c9:	8a 0f                	mov    (%rdi),%cl
  4055cb:	84 c9                	test   %cl,%cl
  4055cd:	74 59                	je     405628 <_ZN11__sanitizer35RemoveANSIEscapeSequencesFromStringEPc+0x68>
  4055cf:	48 89 c3             	mov    %rax,%rbx
  4055d2:	66 2e 0f 1f 84 00 00 	nopw   %cs:0x0(%rax,%rax,1)
  4055d9:	00 00 00 
  4055dc:	0f 1f 40 00          	nopl   0x0(%rax)
  4055e0:	48 39 d8             	cmp    %rbx,%rax
  4055e3:	72 4b                	jb     405630 <_ZN11__sanitizer35RemoveANSIEscapeSequencesFromStringEPc+0x70>
  4055e5:	80 f9 1b             	cmp    $0x1b,%cl
  4055e8:	75 25                	jne    40560f <_ZN11__sanitizer35RemoveANSIEscapeSequencesFromStringEPc+0x4f>
  4055ea:	80 78 01 5b          	cmpb   $0x5b,0x1(%rax)
  4055ee:	75 1f                	jne    40560f <_ZN11__sanitizer35RemoveANSIEscapeSequencesFromStringEPc+0x4f>
  4055f0:	48 89 c7             	mov    %rax,%rdi
  4055f3:	be 6d 00 00 00       	mov    $0x6d,%esi
  4055f8:	e8 e3 5f 00 00       	callq  40b5e0 <_ZN11__sanitizer18internal_strchrnulEPKci>
  4055fd:	80 38 00             	cmpb   $0x0,(%rax)
  405600:	74 29                	je     40562b <_ZN11__sanitizer35RemoveANSIEscapeSequencesFromStringEPc+0x6b>
  405602:	48 83 c0 01          	add    $0x1,%rax
  405606:	0f b6 08             	movzbl (%rax),%ecx
  405609:	84 c9                	test   %cl,%cl
  40560b:	75 d3                	jne    4055e0 <_ZN11__sanitizer35RemoveANSIEscapeSequencesFromStringEPc+0x20>
  40560d:	eb 1c                	jmp    40562b <_ZN11__sanitizer35RemoveANSIEscapeSequencesFromStringEPc+0x6b>
  40560f:	48 39 d8             	cmp    %rbx,%rax
  405612:	74 02                	je     405616 <_ZN11__sanitizer35RemoveANSIEscapeSequencesFromStringEPc+0x56>
  405614:	88 0b                	mov    %cl,(%rbx)
  405616:	48 83 c3 01          	add    $0x1,%rbx
  40561a:	0f b6 48 01          	movzbl 0x1(%rax),%ecx
  40561e:	48 83 c0 01          	add    $0x1,%rax
  405622:	84 c9                	test   %cl,%cl
  405624:	75 ba                	jne    4055e0 <_ZN11__sanitizer35RemoveANSIEscapeSequencesFromStringEPc+0x20>
  405626:	eb 03                	jmp    40562b <_ZN11__sanitizer35RemoveANSIEscapeSequencesFromStringEPc+0x6b>
  405628:	48 89 c3             	mov    %rax,%rbx
  40562b:	c6 03 00             	movb   $0x0,(%rbx)
  40562e:	5b                   	pop    %rbx
  40562f:	c3                   	retq   
  405630:	48 8d 3d 2b f4 01 00 	lea    0x1f42b(%rip),%rdi        # 424a62 <_IO_stdin_used+0xa62>
  405637:	48 8d 15 c4 f4 01 00 	lea    0x1f4c4(%rip),%rdx        # 424b02 <_IO_stdin_used+0xb02>
  40563e:	be 69 00 00 00       	mov    $0x69,%esi
  405643:	48 89 c1             	mov    %rax,%rcx
  405646:	49 89 d8             	mov    %rbx,%r8
  405649:	e8 12 e2 00 00       	callq  413860 <_ZN11__sanitizer11CheckFailedEPKciS1_yy>
  40564e:	66 90                	xchg   %ax,%ax

0000000000405650 <_ZN11__sanitizer12LoadedModule3setEPKcm>:
  405650:	41 57                	push   %r15
  405652:	41 56                	push   %r14
  405654:	53                   	push   %rbx
  405655:	49 89 d6             	mov    %rdx,%r14
  405658:	49 89 f7             	mov    %rsi,%r15
  40565b:	48 89 fb             	mov    %rdi,%rbx
  40565e:	48 8b 3f             	mov    (%rdi),%rdi
  405661:	31 f6                	xor    %esi,%esi
  405663:	e8 08 e1 ff ff       	callq  403770 <_ZN11__sanitizer12InternalFreeEPvPNS_30SizeClassAllocator32LocalCacheINS_20SizeClassAllocator32INS_4AP32EEEEE>
  405668:	0f 57 c0             	xorps  %xmm0,%xmm0
  40566b:	0f 11 43 08          	movups %xmm0,0x8(%rbx)
  40566f:	48 c7 03 00 00 00 00 	movq   $0x0,(%rbx)
  405676:	c7 43 18 00 00 00 00 	movl   $0x0,0x18(%rbx)
  40567d:	48 8d 7b 1c          	lea    0x1c(%rbx),%rdi
  405681:	ba 10 00 00 00       	mov    $0x10,%edx
  405686:	31 f6                	xor    %esi,%esi
  405688:	e8 f3 5a 00 00       	callq  40b180 <_ZN11__sanitizer15internal_memsetEPvim>
  40568d:	c6 43 2c 00          	movb   $0x0,0x2c(%rbx)
  405691:	eb 1c                	jmp    4056af <_ZN11__sanitizer12LoadedModule3setEPKcm+0x5f>
  405693:	66 2e 0f 1f 84 00 00 	nopw   %cs:0x0(%rax,%rax,1)
  40569a:	00 00 00 
  40569d:	0f 1f 00             	nopl   (%rax)
  4056a0:	48 83 c0 ff          	add    $0xffffffffffffffff,%rax
  4056a4:	48 89 43 30          	mov    %rax,0x30(%rbx)
  4056a8:	31 f6                	xor    %esi,%esi
  4056aa:	e8 c1 e0 ff ff       	callq  403770 <_ZN11__sanitizer12InternalFreeEPvPNS_30SizeClassAllocator32LocalCacheINS_20SizeClassAllocator32INS_4AP32EEEEE>
  4056af:	48 8b 43 30          	mov    0x30(%rbx),%rax
  4056b3:	48 85 c0             	test   %rax,%rax
  4056b6:	74 1a                	je     4056d2 <_ZN11__sanitizer12LoadedModule3setEPKcm+0x82>
  4056b8:	48 8b 7b 38          	mov    0x38(%rbx),%rdi
  4056bc:	48 8b 0f             	mov    (%rdi),%rcx
  4056bf:	48 89 4b 38          	mov    %rcx,0x38(%rbx)
  4056c3:	48 85 c9             	test   %rcx,%rcx
  4056c6:	75 d8                	jne    4056a0 <_ZN11__sanitizer12LoadedModule3setEPKcm+0x50>
  4056c8:	48 c7 43 40 00 00 00 	movq   $0x0,0x40(%rbx)
  4056cf:	00 
  4056d0:	eb ce                	jmp    4056a0 <_ZN11__sanitizer12LoadedModule3setEPKcm+0x50>
  4056d2:	4c 89 ff             	mov    %r15,%rdi
  4056d5:	e8 96 5c 00 00       	callq  40b370 <_ZN11__sanitizer15internal_strdupEPKc>
  4056da:	48 89 03             	mov    %rax,(%rbx)
  4056dd:	4c 89 73 08          	mov    %r14,0x8(%rbx)
  4056e1:	5b                   	pop    %rbx
  4056e2:	41 5e                	pop    %r14
  4056e4:	41 5f                	pop    %r15
  4056e6:	c3                   	retq   
  4056e7:	66 0f 1f 84 00 00 00 	nopw   0x0(%rax,%rax,1)
  4056ee:	00 00 

00000000004056f0 <_ZN11__sanitizer12LoadedModule5clearEv>:
  4056f0:	53                   	push   %rbx
  4056f1:	48 89 fb             	mov    %rdi,%rbx
  4056f4:	48 8b 3f             	mov    (%rdi),%rdi
  4056f7:	31 f6                	xor    %esi,%esi
  4056f9:	e8 72 e0 ff ff       	callq  403770 <_ZN11__sanitizer12InternalFreeEPvPNS_30SizeClassAllocator32LocalCacheINS_20SizeClassAllocator32INS_4AP32EEEEE>
  4056fe:	0f 57 c0             	xorps  %xmm0,%xmm0
  405701:	0f 11 43 08          	movups %xmm0,0x8(%rbx)
  405705:	48 c7 03 00 00 00 00 	movq   $0x0,(%rbx)
  40570c:	c7 43 18 00 00 00 00 	movl   $0x0,0x18(%rbx)
  405713:	48 8d 7b 1c          	lea    0x1c(%rbx),%rdi
  405717:	ba 10 00 00 00       	mov    $0x10,%edx
  40571c:	31 f6                	xor    %esi,%esi
  40571e:	e8 5d 5a 00 00       	callq  40b180 <_ZN11__sanitizer15internal_memsetEPvim>
  405723:	c6 43 2c 00          	movb   $0x0,0x2c(%rbx)
  405727:	eb 16                	jmp    40573f <_ZN11__sanitizer12LoadedModule5clearEv+0x4f>
  405729:	0f 1f 80 00 00 00 00 	nopl   0x0(%rax)
  405730:	48 83 c0 ff          	add    $0xffffffffffffffff,%rax
  405734:	48 89 43 30          	mov    %rax,0x30(%rbx)
  405738:	31 f6                	xor    %esi,%esi
  40573a:	e8 31 e0 ff ff       	callq  403770 <_ZN11__sanitizer12InternalFreeEPvPNS_30SizeClassAllocator32LocalCacheINS_20SizeClassAllocator32INS_4AP32EEEEE>
  40573f:	48 8b 43 30          	mov    0x30(%rbx),%rax
  405743:	48 85 c0             	test   %rax,%rax
  405746:	74 1a                	je     405762 <_ZN11__sanitizer12LoadedModule5clearEv+0x72>
  405748:	48 8b 7b 38          	mov    0x38(%rbx),%rdi
  40574c:	48 8b 0f             	mov    (%rdi),%rcx
  40574f:	48 89 4b 38          	mov    %rcx,0x38(%rbx)
  405753:	48 85 c9             	test   %rcx,%rcx
  405756:	75 d8                	jne    405730 <_ZN11__sanitizer12LoadedModule5clearEv+0x40>
  405758:	48 c7 43 40 00 00 00 	movq   $0x0,0x40(%rbx)
  40575f:	00 
  405760:	eb ce                	jmp    405730 <_ZN11__sanitizer12LoadedModule5clearEv+0x40>
  405762:	5b                   	pop    %rbx
  405763:	c3                   	retq   
  405764:	66 2e 0f 1f 84 00 00 	nopw   %cs:0x0(%rax,%rax,1)
  40576b:	00 00 00 
  40576e:	66 90                	xchg   %ax,%ax

0000000000405770 <_ZN11__sanitizer12LoadedModule3setEPKcmNS_10ModuleArchEPhb>:
  405770:	55                   	push   %rbp
  405771:	41 57                	push   %r15
  405773:	41 56                	push   %r14
  405775:	41 55                	push   %r13
  405777:	41 54                	push   %r12
  405779:	53                   	push   %rbx
  40577a:	50                   	push   %rax
  40577b:	44 89 4c 24 04       	mov    %r9d,0x4(%rsp)
  405780:	4d 89 c7             	mov    %r8,%r15
  405783:	41 89 cc             	mov    %ecx,%r12d
  405786:	49 89 d5             	mov    %rdx,%r13
  405789:	48 89 f3             	mov    %rsi,%rbx
  40578c:	48 89 fd             	mov    %rdi,%rbp
  40578f:	48 8b 3f             	mov    (%rdi),%rdi
  405792:	31 f6                	xor    %esi,%esi
  405794:	e8 d7 df ff ff       	callq  403770 <_ZN11__sanitizer12InternalFreeEPvPNS_30SizeClassAllocator32LocalCacheINS_20SizeClassAllocator32INS_4AP32EEEEE>
  405799:	0f 57 c0             	xorps  %xmm0,%xmm0
  40579c:	0f 11 45 08          	movups %xmm0,0x8(%rbp)
  4057a0:	48 c7 45 00 00 00 00 	movq   $0x0,0x0(%rbp)
  4057a7:	00 
  4057a8:	c7 45 18 00 00 00 00 	movl   $0x0,0x18(%rbp)
  4057af:	4c 8d 75 1c          	lea    0x1c(%rbp),%r14
  4057b3:	ba 10 00 00 00       	mov    $0x10,%edx
  4057b8:	4c 89 f7             	mov    %r14,%rdi
  4057bb:	31 f6                	xor    %esi,%esi
  4057bd:	e8 be 59 00 00       	callq  40b180 <_ZN11__sanitizer15internal_memsetEPvim>
  4057c2:	c6 45 2c 00          	movb   $0x0,0x2c(%rbp)
  4057c6:	eb 17                	jmp    4057df <_ZN11__sanitizer12LoadedModule3setEPKcmNS_10ModuleArchEPhb+0x6f>
  4057c8:	0f 1f 84 00 00 00 00 	nopl   0x0(%rax,%rax,1)
  4057cf:	00 
  4057d0:	48 83 c0 ff          	add    $0xffffffffffffffff,%rax
  4057d4:	48 89 45 30          	mov    %rax,0x30(%rbp)
  4057d8:	31 f6                	xor    %esi,%esi
  4057da:	e8 91 df ff ff       	callq  403770 <_ZN11__sanitizer12InternalFreeEPvPNS_30SizeClassAllocator32LocalCacheINS_20SizeClassAllocator32INS_4AP32EEEEE>
  4057df:	48 8b 45 30          	mov    0x30(%rbp),%rax
  4057e3:	48 85 c0             	test   %rax,%rax
  4057e6:	74 1a                	je     405802 <_ZN11__sanitizer12LoadedModule3setEPKcmNS_10ModuleArchEPhb+0x92>
  4057e8:	48 8b 7d 38          	mov    0x38(%rbp),%rdi
  4057ec:	48 8b 0f             	mov    (%rdi),%rcx
  4057ef:	48 89 4d 38          	mov    %rcx,0x38(%rbp)
  4057f3:	48 85 c9             	test   %rcx,%rcx
  4057f6:	75 d8                	jne    4057d0 <_ZN11__sanitizer12LoadedModule3setEPKcmNS_10ModuleArchEPhb+0x60>
  4057f8:	48 c7 45 40 00 00 00 	movq   $0x0,0x40(%rbp)
  4057ff:	00 
  405800:	eb ce                	jmp    4057d0 <_ZN11__sanitizer12LoadedModule3setEPKcmNS_10ModuleArchEPhb+0x60>
  405802:	48 89 df             	mov    %rbx,%rdi
  405805:	e8 66 5b 00 00       	callq  40b370 <_ZN11__sanitizer15internal_strdupEPKc>
  40580a:	48 89 45 00          	mov    %rax,0x0(%rbp)
  40580e:	4c 89 6d 08          	mov    %r13,0x8(%rbp)
  405812:	44 89 65 18          	mov    %r12d,0x18(%rbp)
  405816:	ba 10 00 00 00       	mov    $0x10,%edx
  40581b:	4c 89 f7             	mov    %r14,%rdi
  40581e:	4c 89 fe             	mov    %r15,%rsi
  405821:	e8 5a 55 00 00       	callq  40ad80 <_ZN11__sanitizer15internal_memcpyEPvPKvm>
  405826:	8b 44 24 04          	mov    0x4(%rsp),%eax
  40582a:	88 45 2c             	mov    %al,0x2c(%rbp)
  40582d:	48 83 c4 08          	add    $0x8,%rsp
  405831:	5b                   	pop    %rbx
  405832:	41 5c                	pop    %r12
  405834:	41 5d                	pop    %r13
  405836:	41 5e                	pop    %r14
  405838:	41 5f                	pop    %r15
  40583a:	5d                   	pop    %rbp
  40583b:	c3                   	retq   
  40583c:	0f 1f 40 00          	nopl   0x0(%rax)

0000000000405840 <_ZN11__sanitizer12LoadedModule15addAddressRangeEmmbbPKc>:
  405840:	55                   	push   %rbp
  405841:	41 57                	push   %r15
  405843:	41 56                	push   %r14
  405845:	41 55                	push   %r13
  405847:	41 54                	push   %r12
  405849:	53                   	push   %rbx
  40584a:	50                   	push   %rax
  40584b:	4d 89 cc             	mov    %r9,%r12
  40584e:	44 89 44 24 04       	mov    %r8d,0x4(%rsp)
  405853:	41 89 cd             	mov    %ecx,%r13d
  405856:	49 89 d7             	mov    %rdx,%r15
  405859:	49 89 f6             	mov    %rsi,%r14
  40585c:	48 89 fb             	mov    %rdi,%rbx
  40585f:	bf 30 00 00 00       	mov    $0x30,%edi
  405864:	31 f6                	xor    %esi,%esi
  405866:	31 d2                	xor    %edx,%edx
  405868:	e8 73 dc ff ff       	callq  4034e0 <_ZN11__sanitizer13InternalAllocEmPNS_30SizeClassAllocator32LocalCacheINS_20SizeClassAllocator32INS_4AP32EEEEEm>
  40586d:	48 89 c5             	mov    %rax,%rbp
  405870:	48 c7 00 00 00 00 00 	movq   $0x0,(%rax)
  405877:	4c 89 70 08          	mov    %r14,0x8(%rax)
  40587b:	4c 89 78 10          	mov    %r15,0x10(%rax)
  40587f:	44 88 68 18          	mov    %r13b,0x18(%rax)
  405883:	8b 44 24 04          	mov    0x4(%rsp),%eax
  405887:	88 45 19             	mov    %al,0x19(%rbp)
  40588a:	48 8d 7d 1a          	lea    0x1a(%rbp),%rdi
  40588e:	4d 85 e4             	test   %r12,%r12
  405891:	48 8d 35 6e 49 02 00 	lea    0x2496e(%rip),%rsi        # 42a206 <_ZN8__sancov12_GLOBAL__N_15MagicE+0x6b6>
  405898:	49 0f 45 f4          	cmovne %r12,%rsi
  40589c:	ba 10 00 00 00       	mov    $0x10,%edx
  4058a1:	e8 8a 6a 00 00       	callq  40c330 <_ZN11__sanitizer16internal_strncpyEPcPKcm>
  4058a6:	48 8b 43 30          	mov    0x30(%rbx),%rax
  4058aa:	48 c7 45 00 00 00 00 	movq   $0x0,0x0(%rbp)
  4058b1:	00 
  4058b2:	48 85 c0             	test   %rax,%rax
  4058b5:	74 1a                	je     4058d1 <_ZN11__sanitizer12LoadedModule15addAddressRangeEmmbbPKc+0x91>
  4058b7:	48 8b 4b 40          	mov    0x40(%rbx),%rcx
  4058bb:	48 89 29             	mov    %rbp,(%rcx)
  4058be:	48 89 6b 40          	mov    %rbp,0x40(%rbx)
  4058c2:	48 83 c0 01          	add    $0x1,%rax
  4058c6:	48 89 43 30          	mov    %rax,0x30(%rbx)
  4058ca:	45 84 ed             	test   %r13b,%r13b
  4058cd:	75 18                	jne    4058e7 <_ZN11__sanitizer12LoadedModule15addAddressRangeEmmbbPKc+0xa7>
  4058cf:	eb 20                	jmp    4058f1 <_ZN11__sanitizer12LoadedModule15addAddressRangeEmmbbPKc+0xb1>
  4058d1:	48 89 6b 40          	mov    %rbp,0x40(%rbx)
  4058d5:	48 89 6b 38          	mov    %rbp,0x38(%rbx)
  4058d9:	b8 01 00 00 00       	mov    $0x1,%eax
  4058de:	48 89 43 30          	mov    %rax,0x30(%rbx)
  4058e2:	45 84 ed             	test   %r13b,%r13b
  4058e5:	74 0a                	je     4058f1 <_ZN11__sanitizer12LoadedModule15addAddressRangeEmmbbPKc+0xb1>
  4058e7:	4c 39 7b 10          	cmp    %r15,0x10(%rbx)
  4058eb:	73 04                	jae    4058f1 <_ZN11__sanitizer12LoadedModule15addAddressRangeEmmbbPKc+0xb1>
  4058ed:	4c 89 7b 10          	mov    %r15,0x10(%rbx)
  4058f1:	48 83 c4 08          	add    $0x8,%rsp
  4058f5:	5b                   	pop    %rbx
  4058f6:	41 5c                	pop    %r12
  4058f8:	41 5d                	pop    %r13
  4058fa:	41 5e                	pop    %r14
  4058fc:	41 5f                	pop    %r15
  4058fe:	5d                   	pop    %rbp
  4058ff:	c3                   	retq   

0000000000405900 <_ZNK11__sanitizer12LoadedModule15containsAddressEm>:
  405900:	48 8b 47 38          	mov    0x38(%rdi),%rax
  405904:	eb 0d                	jmp    405913 <_ZNK11__sanitizer12LoadedModule15containsAddressEm+0x13>
  405906:	66 2e 0f 1f 84 00 00 	nopw   %cs:0x0(%rax,%rax,1)
  40590d:	00 00 00 
  405910:	48 8b 00             	mov    (%rax),%rax
  405913:	48 85 c0             	test   %rax,%rax
  405916:	74 0f                	je     405927 <_ZNK11__sanitizer12LoadedModule15containsAddressEm+0x27>
  405918:	48 39 70 08          	cmp    %rsi,0x8(%rax)
  40591c:	77 f2                	ja     405910 <_ZNK11__sanitizer12LoadedModule15containsAddressEm+0x10>
  40591e:	48 39 70 10          	cmp    %rsi,0x10(%rax)
  405922:	76 ec                	jbe    405910 <_ZNK11__sanitizer12LoadedModule15containsAddressEm+0x10>
  405924:	b0 01                	mov    $0x1,%al
  405926:	c3                   	retq   
  405927:	31 c0                	xor    %eax,%eax
  405929:	c3                   	retq   
  40592a:	66 0f 1f 44 00 00    	nopw   0x0(%rax,%rax,1)

0000000000405930 <_ZN11__sanitizer17IncreaseTotalMmapEm>:
  405930:	50                   	push   %rax
  405931:	48 8d 05 10 4c 0c 00 	lea    0xc4c10(%rip),%rax        # 4ca548 <_ZN11__sanitizer21common_flags_dont_useE>
  405938:	48 83 b8 80 00 00 00 	cmpq   $0x0,0x80(%rax)
  40593f:	00 
  405940:	74 1c                	je     40595e <_ZN11__sanitizer17IncreaseTotalMmapEm+0x2e>
  405942:	48 89 f9             	mov    %rdi,%rcx
  405945:	f0 48 0f c1 0d 9a 2b 	lock xadd %rcx,0xc2b9a(%rip)        # 4c84e8 <_ZN11__sanitizerL14g_total_mmapedE>
  40594c:	0c 00 
  40594e:	48 01 f9             	add    %rdi,%rcx
  405951:	48 c1 e9 14          	shr    $0x14,%rcx
  405955:	48 3b 88 80 00 00 00 	cmp    0x80(%rax),%rcx
  40595c:	73 02                	jae    405960 <_ZN11__sanitizer17IncreaseTotalMmapEm+0x30>
  40595e:	58                   	pop    %rax
  40595f:	c3                   	retq   
  405960:	48 8d 3d aa f1 01 00 	lea    0x1f1aa(%rip),%rdi        # 424b11 <_IO_stdin_used+0xb11>
  405967:	e8 c4 25 00 00       	callq  407f30 <_ZN11__sanitizer8RawWriteEPKc>
  40596c:	e8 0f de 00 00       	callq  413780 <_ZN11__sanitizer3DieEv>
  405971:	66 2e 0f 1f 84 00 00 	nopw   %cs:0x0(%rax,%rax,1)
  405978:	00 00 00 
  40597b:	0f 1f 44 00 00       	nopl   0x0(%rax,%rax,1)

0000000000405980 <_ZN11__sanitizer17DecreaseTotalMmapEm>:
  405980:	48 8d 05 c1 4b 0c 00 	lea    0xc4bc1(%rip),%rax        # 4ca548 <_ZN11__sanitizer21common_flags_dont_useE>
  405987:	48 83 b8 80 00 00 00 	cmpq   $0x0,0x80(%rax)
  40598e:	00 
  40598f:	74 0b                	je     40599c <_ZN11__sanitizer17DecreaseTotalMmapEm+0x1c>
  405991:	48 f7 df             	neg    %rdi
  405994:	f0 48 01 3d 4c 2b 0c 	lock add %rdi,0xc2b4c(%rip)        # 4c84e8 <_ZN11__sanitizerL14g_total_mmapedE>
  40599b:	00 
  40599c:	c3                   	retq   
  40599d:	0f 1f 00             	nopl   (%rax)

00000000004059a0 <_ZN11__sanitizer13TemplateMatchEPKcS1_>:
  4059a0:	55                   	push   %rbp
  4059a1:	41 57                	push   %r15
  4059a3:	41 56                	push   %r14
  4059a5:	41 55                	push   %r13
  4059a7:	41 54                	push   %r12
  4059a9:	53                   	push   %rbx
  4059aa:	50                   	push   %rax
  4059ab:	48 85 f6             	test   %rsi,%rsi
  4059ae:	0f 84 24 01 00 00    	je     405ad8 <_ZN11__sanitizer13TemplateMatchEPKcS1_+0x138>
  4059b4:	80 3e 00             	cmpb   $0x0,(%rsi)
  4059b7:	0f 84 1b 01 00 00    	je     405ad8 <_ZN11__sanitizer13TemplateMatchEPKcS1_+0x138>
  4059bd:	48 85 ff             	test   %rdi,%rdi
  4059c0:	74 11                	je     4059d3 <_ZN11__sanitizer13TemplateMatchEPKcS1_+0x33>
  4059c2:	80 3f 5e             	cmpb   $0x5e,(%rdi)
  4059c5:	4c 8d 6f 01          	lea    0x1(%rdi),%r13
  4059c9:	41 0f 94 c7          	sete   %r15b
  4059cd:	4c 0f 45 ef          	cmovne %rdi,%r13
  4059d1:	eb 06                	jmp    4059d9 <_ZN11__sanitizer13TemplateMatchEPKcS1_+0x39>
  4059d3:	45 31 ff             	xor    %r15d,%r15d
  4059d6:	45 31 ed             	xor    %r13d,%r13d
  4059d9:	4d 85 ed             	test   %r13,%r13
  4059dc:	0f 84 fb 00 00 00    	je     405add <_ZN11__sanitizer13TemplateMatchEPKcS1_+0x13d>
  4059e2:	49 89 f6             	mov    %rsi,%r14
  4059e5:	31 c0                	xor    %eax,%eax
  4059e7:	4c 89 eb             	mov    %r13,%rbx
  4059ea:	8a 0b                	mov    (%rbx),%cl
  4059ec:	80 f9 2a             	cmp    $0x2a,%cl
  4059ef:	75 20                	jne    405a11 <_ZN11__sanitizer13TemplateMatchEPKcS1_+0x71>
  4059f1:	66 2e 0f 1f 84 00 00 	nopw   %cs:0x0(%rax,%rax,1)
  4059f8:	00 00 00 
  4059fb:	0f 1f 44 00 00       	nopl   0x0(%rax,%rax,1)
  405a00:	48 83 c3 01          	add    $0x1,%rbx
  405a04:	b0 01                	mov    $0x1,%al
  405a06:	45 31 ff             	xor    %r15d,%r15d
  405a09:	0f b6 0b             	movzbl (%rbx),%ecx
  405a0c:	80 f9 2a             	cmp    $0x2a,%cl
  405a0f:	74 ef                	je     405a00 <_ZN11__sanitizer13TemplateMatchEPKcS1_+0x60>
  405a11:	84 c9                	test   %cl,%cl
  405a13:	0f 84 c4 00 00 00    	je     405add <_ZN11__sanitizer13TemplateMatchEPKcS1_+0x13d>
  405a19:	41 8a 16             	mov    (%r14),%dl
  405a1c:	80 f9 24             	cmp    $0x24,%cl
  405a1f:	0f 84 cd 00 00 00    	je     405af2 <_ZN11__sanitizer13TemplateMatchEPKcS1_+0x152>
  405a25:	84 d2                	test   %dl,%dl
  405a27:	0f 84 ab 00 00 00    	je     405ad8 <_ZN11__sanitizer13TemplateMatchEPKcS1_+0x138>
  405a2d:	48 89 df             	mov    %rbx,%rdi
  405a30:	be 2a 00 00 00       	mov    $0x2a,%esi
  405a35:	e8 06 59 00 00       	callq  40b340 <_ZN11__sanitizer15internal_strchrEPKci>
  405a3a:	48 89 c5             	mov    %rax,%rbp
  405a3d:	48 89 df             	mov    %rbx,%rdi
  405a40:	be 24 00 00 00       	mov    $0x24,%esi
  405a45:	e8 f6 58 00 00       	callq  40b340 <_ZN11__sanitizer15internal_strchrEPKci>
  405a4a:	49 89 c4             	mov    %rax,%r12
  405a4d:	48 85 ed             	test   %rbp,%rbp
  405a50:	74 13                	je     405a65 <_ZN11__sanitizer13TemplateMatchEPKcS1_+0xc5>
  405a52:	49 39 ec             	cmp    %rbp,%r12
  405a55:	49 89 ed             	mov    %rbp,%r13
  405a58:	4d 0f 42 ec          	cmovb  %r12,%r13
  405a5c:	4d 85 e4             	test   %r12,%r12
  405a5f:	4c 0f 44 ed          	cmove  %rbp,%r13
  405a63:	eb 08                	jmp    405a6d <_ZN11__sanitizer13TemplateMatchEPKcS1_+0xcd>
  405a65:	4d 89 e5             	mov    %r12,%r13
  405a68:	4d 85 e4             	test   %r12,%r12
  405a6b:	74 60                	je     405acd <_ZN11__sanitizer13TemplateMatchEPKcS1_+0x12d>
  405a6d:	41 c6 45 00 00       	movb   $0x0,0x0(%r13)
  405a72:	b0 01                	mov    $0x1,%al
  405a74:	48 89 04 24          	mov    %rax,(%rsp)
  405a78:	4c 89 f7             	mov    %r14,%rdi
  405a7b:	48 89 de             	mov    %rbx,%rsi
  405a7e:	e8 dd 69 00 00       	callq  40c460 <_ZN11__sanitizer15internal_strstrEPKcS1_>
  405a83:	48 89 c5             	mov    %rax,%rbp
  405a86:	48 89 df             	mov    %rbx,%rdi
  405a89:	e8 b2 5a 00 00       	callq  40b540 <_ZN11__sanitizer15internal_strlenEPKc>
  405a8e:	48 89 c6             	mov    %rax,%rsi
  405a91:	80 3c 24 00          	cmpb   $0x0,(%rsp)
  405a95:	74 14                	je     405aab <_ZN11__sanitizer13TemplateMatchEPKcS1_+0x10b>
  405a97:	4d 39 e5             	cmp    %r12,%r13
  405a9a:	b8 2a 00 00 00       	mov    $0x2a,%eax
  405a9f:	b9 24 00 00 00       	mov    $0x24,%ecx
  405aa4:	0f 44 c1             	cmove  %ecx,%eax
  405aa7:	41 88 45 00          	mov    %al,0x0(%r13)
  405aab:	48 85 ed             	test   %rbp,%rbp
  405aae:	74 28                	je     405ad8 <_ZN11__sanitizer13TemplateMatchEPKcS1_+0x138>
  405ab0:	48 01 ee             	add    %rbp,%rsi
  405ab3:	45 84 ff             	test   %r15b,%r15b
  405ab6:	41 bf 00 00 00 00    	mov    $0x0,%r15d
  405abc:	0f 84 17 ff ff ff    	je     4059d9 <_ZN11__sanitizer13TemplateMatchEPKcS1_+0x39>
  405ac2:	4c 39 f5             	cmp    %r14,%rbp
  405ac5:	0f 84 0e ff ff ff    	je     4059d9 <_ZN11__sanitizer13TemplateMatchEPKcS1_+0x39>
  405acb:	eb 13                	jmp    405ae0 <_ZN11__sanitizer13TemplateMatchEPKcS1_+0x140>
  405acd:	31 c0                	xor    %eax,%eax
  405acf:	48 89 04 24          	mov    %rax,(%rsp)
  405ad3:	45 31 ed             	xor    %r13d,%r13d
  405ad6:	eb a0                	jmp    405a78 <_ZN11__sanitizer13TemplateMatchEPKcS1_+0xd8>
  405ad8:	45 31 ff             	xor    %r15d,%r15d
  405adb:	eb 03                	jmp    405ae0 <_ZN11__sanitizer13TemplateMatchEPKcS1_+0x140>
  405add:	41 b7 01             	mov    $0x1,%r15b
  405ae0:	44 89 f8             	mov    %r15d,%eax
  405ae3:	48 83 c4 08          	add    $0x8,%rsp
  405ae7:	5b                   	pop    %rbx
  405ae8:	41 5c                	pop    %r12
  405aea:	41 5d                	pop    %r13
  405aec:	41 5e                	pop    %r14
  405aee:	41 5f                	pop    %r15
  405af0:	5d                   	pop    %rbp
  405af1:	c3                   	retq   
  405af2:	84 d2                	test   %dl,%dl
  405af4:	0f 94 c1             	sete   %cl
  405af7:	84 c0                	test   %al,%al
  405af9:	41 0f 95 c7          	setne  %r15b
  405afd:	41 08 cf             	or     %cl,%r15b
  405b00:	eb de                	jmp    405ae0 <_ZN11__sanitizer13TemplateMatchEPKcS1_+0x140>
  405b02:	66 2e 0f 1f 84 00 00 	nopw   %cs:0x0(%rax,%rax,1)
  405b09:	00 00 00 
  405b0c:	0f 1f 40 00          	nopl   0x0(%rax)

0000000000405b10 <_ZN11__sanitizer14GetProcessNameEv>:
  405b10:	48 8d 05 d9 29 0c 00 	lea    0xc29d9(%rip),%rax        # 4c84f0 <_ZN11__sanitizerL22process_name_cache_strE>
  405b17:	c3                   	retq   
  405b18:	0f 1f 84 00 00 00 00 	nopl   0x0(%rax,%rax,1)
  405b1f:	00 

0000000000405b20 <_ZN11__sanitizer17UpdateProcessNameEv>:
  405b20:	41 57                	push   %r15
  405b22:	41 56                	push   %r14
  405b24:	53                   	push   %rbx
  405b25:	4c 8d 35 c4 29 0c 00 	lea    0xc29c4(%rip),%r14        # 4c84f0 <_ZN11__sanitizerL22process_name_cache_strE>
  405b2c:	be 00 10 00 00       	mov    $0x1000,%esi
  405b31:	4c 89 f7             	mov    %r14,%rdi
  405b34:	e8 e7 85 00 00       	callq  40e120 <_ZN11__sanitizer19ReadLongProcessNameEPcm>
  405b39:	4c 89 f7             	mov    %r14,%rdi
  405b3c:	be 2f 00 00 00       	mov    $0x2f,%esi
  405b41:	e8 ea 5a 00 00       	callq  40b630 <_ZN11__sanitizer16internal_strrchrEPKci>
  405b46:	48 85 c0             	test   %rax,%rax
  405b49:	48 8d 58 01          	lea    0x1(%rax),%rbx
  405b4d:	49 0f 44 de          	cmove  %r14,%rbx
  405b51:	48 89 df             	mov    %rbx,%rdi
  405b54:	e8 e7 59 00 00       	callq  40b540 <_ZN11__sanitizer15internal_strlenEPKc>
  405b59:	4c 39 f3             	cmp    %r14,%rbx
  405b5c:	74 16                	je     405b74 <_ZN11__sanitizer17UpdateProcessNameEv+0x54>
  405b5e:	49 89 c7             	mov    %rax,%r15
  405b61:	4c 89 f7             	mov    %r14,%rdi
  405b64:	48 89 de             	mov    %rbx,%rsi
  405b67:	48 89 c2             	mov    %rax,%rdx
  405b6a:	e8 81 53 00 00       	callq  40aef0 <_ZN11__sanitizer16internal_memmoveEPvPKvm>
  405b6f:	43 c6 04 37 00       	movb   $0x0,(%r15,%r14,1)
  405b74:	5b                   	pop    %rbx
  405b75:	41 5e                	pop    %r14
  405b77:	41 5f                	pop    %r15
  405b79:	c3                   	retq   
  405b7a:	66 0f 1f 44 00 00    	nopw   0x0(%rax,%rax,1)

0000000000405b80 <_ZN11__sanitizer15CacheBinaryNameEv>:
  405b80:	41 57                	push   %r15
  405b82:	41 56                	push   %r14
  405b84:	53                   	push   %rbx
  405b85:	80 3d 64 39 0c 00 00 	cmpb   $0x0,0xc3964(%rip)        # 4c94f0 <_ZN11__sanitizerL21binary_name_cache_strE>
  405b8c:	74 06                	je     405b94 <_ZN11__sanitizer15CacheBinaryNameEv+0x14>
  405b8e:	5b                   	pop    %rbx
  405b8f:	41 5e                	pop    %r14
  405b91:	41 5f                	pop    %r15
  405b93:	c3                   	retq   
  405b94:	48 8d 3d 55 39 0c 00 	lea    0xc3955(%rip),%rdi        # 4c94f0 <_ZN11__sanitizerL21binary_name_cache_strE>
  405b9b:	be 00 10 00 00       	mov    $0x1000,%esi
  405ba0:	e8 fb 84 00 00       	callq  40e0a0 <_ZN11__sanitizer14ReadBinaryNameEPcm>
  405ba5:	4c 8d 35 44 29 0c 00 	lea    0xc2944(%rip),%r14        # 4c84f0 <_ZN11__sanitizerL22process_name_cache_strE>
  405bac:	be 00 10 00 00       	mov    $0x1000,%esi
  405bb1:	4c 89 f7             	mov    %r14,%rdi
  405bb4:	e8 67 85 00 00       	callq  40e120 <_ZN11__sanitizer19ReadLongProcessNameEPcm>
  405bb9:	4c 89 f7             	mov    %r14,%rdi
  405bbc:	be 2f 00 00 00       	mov    $0x2f,%esi
  405bc1:	e8 6a 5a 00 00       	callq  40b630 <_ZN11__sanitizer16internal_strrchrEPKci>
  405bc6:	48 85 c0             	test   %rax,%rax
  405bc9:	48 8d 58 01          	lea    0x1(%rax),%rbx
  405bcd:	49 0f 44 de          	cmove  %r14,%rbx
  405bd1:	48 89 df             	mov    %rbx,%rdi
  405bd4:	e8 67 59 00 00       	callq  40b540 <_ZN11__sanitizer15internal_strlenEPKc>
  405bd9:	4c 39 f3             	cmp    %r14,%rbx
  405bdc:	74 b0                	je     405b8e <_ZN11__sanitizer15CacheBinaryNameEv+0xe>
  405bde:	49 89 c7             	mov    %rax,%r15
  405be1:	4c 89 f7             	mov    %r14,%rdi
  405be4:	48 89 de             	mov    %rbx,%rsi
  405be7:	48 89 c2             	mov    %rax,%rdx
  405bea:	e8 01 53 00 00       	callq  40aef0 <_ZN11__sanitizer16internal_memmoveEPvPKvm>
  405bef:	43 c6 04 37 00       	movb   $0x0,(%r15,%r14,1)
  405bf4:	5b                   	pop    %rbx
  405bf5:	41 5e                	pop    %r14
  405bf7:	41 5f                	pop    %r15
  405bf9:	c3                   	retq   
  405bfa:	66 0f 1f 44 00 00    	nopw   0x0(%rax,%rax,1)

0000000000405c00 <_ZN11__sanitizer20ReadBinaryNameCachedEPcm>:
  405c00:	41 57                	push   %r15
  405c02:	41 56                	push   %r14
  405c04:	41 55                	push   %r13
  405c06:	41 54                	push   %r12
  405c08:	53                   	push   %rbx
  405c09:	49 89 f4             	mov    %rsi,%r12
  405c0c:	49 89 fe             	mov    %rdi,%r14
  405c0f:	80 3d da 38 0c 00 00 	cmpb   $0x0,0xc38da(%rip)        # 4c94f0 <_ZN11__sanitizerL21binary_name_cache_strE>
  405c16:	75 61                	jne    405c79 <_ZN11__sanitizer20ReadBinaryNameCachedEPcm+0x79>
  405c18:	48 8d 3d d1 38 0c 00 	lea    0xc38d1(%rip),%rdi        # 4c94f0 <_ZN11__sanitizerL21binary_name_cache_strE>
  405c1f:	be 00 10 00 00       	mov    $0x1000,%esi
  405c24:	e8 77 84 00 00       	callq  40e0a0 <_ZN11__sanitizer14ReadBinaryNameEPcm>
  405c29:	4c 8d 3d c0 28 0c 00 	lea    0xc28c0(%rip),%r15        # 4c84f0 <_ZN11__sanitizerL22process_name_cache_strE>
  405c30:	be 00 10 00 00       	mov    $0x1000,%esi
  405c35:	4c 89 ff             	mov    %r15,%rdi
  405c38:	e8 e3 84 00 00       	callq  40e120 <_ZN11__sanitizer19ReadLongProcessNameEPcm>
  405c3d:	4c 89 ff             	mov    %r15,%rdi
  405c40:	be 2f 00 00 00       	mov    $0x2f,%esi
  405c45:	e8 e6 59 00 00       	callq  40b630 <_ZN11__sanitizer16internal_strrchrEPKci>
  405c4a:	48 85 c0             	test   %rax,%rax
  405c4d:	48 8d 58 01          	lea    0x1(%rax),%rbx
  405c51:	49 0f 44 df          	cmove  %r15,%rbx
  405c55:	48 89 df             	mov    %rbx,%rdi
  405c58:	e8 e3 58 00 00       	callq  40b540 <_ZN11__sanitizer15internal_strlenEPKc>
  405c5d:	4c 39 fb             	cmp    %r15,%rbx
  405c60:	74 17                	je     405c79 <_ZN11__sanitizer20ReadBinaryNameCachedEPcm+0x79>
  405c62:	49 89 c5             	mov    %rax,%r13
  405c65:	4c 89 ff             	mov    %r15,%rdi
  405c68:	48 89 de             	mov    %rbx,%rsi
  405c6b:	48 89 c2             	mov    %rax,%rdx
  405c6e:	e8 7d 52 00 00       	callq  40aef0 <_ZN11__sanitizer16internal_memmoveEPvPKvm>
  405c73:	43 c6 44 3d 00 00    	movb   $0x0,0x0(%r13,%r15,1)
  405c79:	48 8d 3d 70 38 0c 00 	lea    0xc3870(%rip),%rdi        # 4c94f0 <_ZN11__sanitizerL21binary_name_cache_strE>
  405c80:	e8 bb 58 00 00       	callq  40b540 <_ZN11__sanitizer15internal_strlenEPKc>
  405c85:	49 8d 5c 24 ff       	lea    -0x1(%r12),%rbx
  405c8a:	48 39 d8             	cmp    %rbx,%rax
  405c8d:	48 0f 42 d8          	cmovb  %rax,%rbx
  405c91:	49 83 fc 01          	cmp    $0x1,%r12
  405c95:	73 04                	jae    405c9b <_ZN11__sanitizer20ReadBinaryNameCachedEPcm+0x9b>
  405c97:	31 db                	xor    %ebx,%ebx
  405c99:	eb 17                	jmp    405cb2 <_ZN11__sanitizer20ReadBinaryNameCachedEPcm+0xb2>
  405c9b:	48 8d 35 4e 38 0c 00 	lea    0xc384e(%rip),%rsi        # 4c94f0 <_ZN11__sanitizerL21binary_name_cache_strE>
  405ca2:	4c 89 f7             	mov    %r14,%rdi
  405ca5:	48 89 da             	mov    %rbx,%rdx
  405ca8:	e8 d3 50 00 00       	callq  40ad80 <_ZN11__sanitizer15internal_memcpyEPvPKvm>
  405cad:	41 c6 04 1e 00       	movb   $0x0,(%r14,%rbx,1)
  405cb2:	48 89 d8             	mov    %rbx,%rax
  405cb5:	5b                   	pop    %rbx
  405cb6:	41 5c                	pop    %r12
  405cb8:	41 5d                	pop    %r13
  405cba:	41 5e                	pop    %r14
  405cbc:	41 5f                	pop    %r15
  405cbe:	c3                   	retq   
  405cbf:	90                   	nop

0000000000405cc0 <_ZN11__sanitizer12PrintCmdlineEv>:
  405cc0:	41 56                	push   %r14
  405cc2:	53                   	push   %rbx
  405cc3:	50                   	push   %rax
  405cc4:	e8 17 77 00 00       	callq  40d3e0 <_ZN11__sanitizer7GetArgvEv>
  405cc9:	48 85 c0             	test   %rax,%rax
  405ccc:	74 5d                	je     405d2b <_ZN11__sanitizer12PrintCmdlineEv+0x6b>
  405cce:	48 89 c3             	mov    %rax,%rbx
  405cd1:	48 8d 3d 6e ee 01 00 	lea    0x1ee6e(%rip),%rdi        # 424b46 <_IO_stdin_used+0xb46>
  405cd8:	31 c0                	xor    %eax,%eax
  405cda:	e8 c1 a2 00 00       	callq  40ffa0 <_ZN11__sanitizer6PrintfEPKcz>
  405cdf:	48 8b 33             	mov    (%rbx),%rsi
  405ce2:	48 85 f6             	test   %rsi,%rsi
  405ce5:	74 2f                	je     405d16 <_ZN11__sanitizer12PrintCmdlineEv+0x56>
  405ce7:	48 83 c3 08          	add    $0x8,%rbx
  405ceb:	4c 8d 35 71 53 02 00 	lea    0x25371(%rip),%r14        # 42b063 <_ZN11__sanitizer16Addr2LineProcess18output_terminator_E+0x2cf>
  405cf2:	66 2e 0f 1f 84 00 00 	nopw   %cs:0x0(%rax,%rax,1)
  405cf9:	00 00 00 
  405cfc:	0f 1f 40 00          	nopl   0x0(%rax)
  405d00:	4c 89 f7             	mov    %r14,%rdi
  405d03:	31 c0                	xor    %eax,%eax
  405d05:	e8 96 a2 00 00       	callq  40ffa0 <_ZN11__sanitizer6PrintfEPKcz>
  405d0a:	48 8b 33             	mov    (%rbx),%rsi
  405d0d:	48 83 c3 08          	add    $0x8,%rbx
  405d11:	48 85 f6             	test   %rsi,%rsi
  405d14:	75 ea                	jne    405d00 <_ZN11__sanitizer12PrintCmdlineEv+0x40>
  405d16:	48 8d 3d e7 44 02 00 	lea    0x244e7(%rip),%rdi        # 42a204 <_ZN8__sancov12_GLOBAL__N_15MagicE+0x6b4>
  405d1d:	31 c0                	xor    %eax,%eax
  405d1f:	48 83 c4 08          	add    $0x8,%rsp
  405d23:	5b                   	pop    %rbx
  405d24:	41 5e                	pop    %r14
  405d26:	e9 75 a2 00 00       	jmpq   40ffa0 <_ZN11__sanitizer6PrintfEPKcz>
  405d2b:	48 83 c4 08          	add    $0x8,%rsp
  405d2f:	5b                   	pop    %rbx
  405d30:	41 5e                	pop    %r14
  405d32:	c3                   	retq   
  405d33:	66 2e 0f 1f 84 00 00 	nopw   %cs:0x0(%rax,%rax,1)
  405d3a:	00 00 00 
  405d3d:	0f 1f 00             	nopl   (%rax)

0000000000405d40 <_ZN11__sanitizer14RunMallocHooksEPKvm>:
  405d40:	41 56                	push   %r14
  405d42:	53                   	push   %rbx
  405d43:	50                   	push   %rax
  405d44:	48 8b 05 a5 47 0c 00 	mov    0xc47a5(%rip),%rax        # 4ca4f0 <_ZN11__sanitizerL7MFHooksE>
  405d4b:	48 85 c0             	test   %rax,%rax
  405d4e:	74 5f                	je     405daf <_ZN11__sanitizer14RunMallocHooksEPKvm+0x6f>
  405d50:	49 89 f6             	mov    %rsi,%r14
  405d53:	48 89 fb             	mov    %rdi,%rbx
  405d56:	ff d0                	callq  *%rax
  405d58:	48 8b 05 a1 47 0c 00 	mov    0xc47a1(%rip),%rax        # 4ca500 <_ZN11__sanitizerL7MFHooksE+0x10>
  405d5f:	48 85 c0             	test   %rax,%rax
  405d62:	74 4b                	je     405daf <_ZN11__sanitizer14RunMallocHooksEPKvm+0x6f>
  405d64:	48 89 df             	mov    %rbx,%rdi
  405d67:	4c 89 f6             	mov    %r14,%rsi
  405d6a:	ff d0                	callq  *%rax
  405d6c:	48 8b 05 9d 47 0c 00 	mov    0xc479d(%rip),%rax        # 4ca510 <_ZN11__sanitizerL7MFHooksE+0x20>
  405d73:	48 85 c0             	test   %rax,%rax
  405d76:	74 37                	je     405daf <_ZN11__sanitizer14RunMallocHooksEPKvm+0x6f>
  405d78:	48 89 df             	mov    %rbx,%rdi
  405d7b:	4c 89 f6             	mov    %r14,%rsi
  405d7e:	ff d0                	callq  *%rax
  405d80:	48 8b 05 99 47 0c 00 	mov    0xc4799(%rip),%rax        # 4ca520 <_ZN11__sanitizerL7MFHooksE+0x30>
  405d87:	48 85 c0             	test   %rax,%rax
  405d8a:	74 23                	je     405daf <_ZN11__sanitizer14RunMallocHooksEPKvm+0x6f>
  405d8c:	48 89 df             	mov    %rbx,%rdi
  405d8f:	4c 89 f6             	mov    %r14,%rsi
  405d92:	ff d0                	callq  *%rax
  405d94:	48 8b 05 95 47 0c 00 	mov    0xc4795(%rip),%rax        # 4ca530 <_ZN11__sanitizerL7MFHooksE+0x40>
  405d9b:	48 85 c0             	test   %rax,%rax
  405d9e:	74 0f                	je     405daf <_ZN11__sanitizer14RunMallocHooksEPKvm+0x6f>
  405da0:	48 89 df             	mov    %rbx,%rdi
  405da3:	4c 89 f6             	mov    %r14,%rsi
  405da6:	48 83 c4 08          	add    $0x8,%rsp
  405daa:	5b                   	pop    %rbx
  405dab:	41 5e                	pop    %r14
  405dad:	ff e0                	jmpq   *%rax
  405daf:	48 83 c4 08          	add    $0x8,%rsp
  405db3:	5b                   	pop    %rbx
  405db4:	41 5e                	pop    %r14
  405db6:	c3                   	retq   
  405db7:	66 0f 1f 84 00 00 00 	nopw   0x0(%rax,%rax,1)
  405dbe:	00 00 

0000000000405dc0 <_ZN11__sanitizer12RunFreeHooksEPKv>:
  405dc0:	53                   	push   %rbx
  405dc1:	48 8b 05 30 47 0c 00 	mov    0xc4730(%rip),%rax        # 4ca4f8 <_ZN11__sanitizerL7MFHooksE+0x8>
  405dc8:	48 85 c0             	test   %rax,%rax
  405dcb:	74 4a                	je     405e17 <_ZN11__sanitizer12RunFreeHooksEPKv+0x57>
  405dcd:	48 89 fb             	mov    %rdi,%rbx
  405dd0:	ff d0                	callq  *%rax
  405dd2:	48 8b 05 2f 47 0c 00 	mov    0xc472f(%rip),%rax        # 4ca508 <_ZN11__sanitizerL7MFHooksE+0x18>
  405dd9:	48 85 c0             	test   %rax,%rax
  405ddc:	74 39                	je     405e17 <_ZN11__sanitizer12RunFreeHooksEPKv+0x57>
  405dde:	48 89 df             	mov    %rbx,%rdi
  405de1:	ff d0                	callq  *%rax
  405de3:	48 8b 05 2e 47 0c 00 	mov    0xc472e(%rip),%rax        # 4ca518 <_ZN11__sanitizerL7MFHooksE+0x28>
  405dea:	48 85 c0             	test   %rax,%rax
  405ded:	74 28                	je     405e17 <_ZN11__sanitizer12RunFreeHooksEPKv+0x57>
  405def:	48 89 df             	mov    %rbx,%rdi
  405df2:	ff d0                	callq  *%rax
  405df4:	48 8b 05 2d 47 0c 00 	mov    0xc472d(%rip),%rax        # 4ca528 <_ZN11__sanitizerL7MFHooksE+0x38>
  405dfb:	48 85 c0             	test   %rax,%rax
  405dfe:	74 17                	je     405e17 <_ZN11__sanitizer12RunFreeHooksEPKv+0x57>
  405e00:	48 89 df             	mov    %rbx,%rdi
  405e03:	ff d0                	callq  *%rax
  405e05:	48 8b 05 2c 47 0c 00 	mov    0xc472c(%rip),%rax        # 4ca538 <_ZN11__sanitizerL7MFHooksE+0x48>
  405e0c:	48 85 c0             	test   %rax,%rax
  405e0f:	74 06                	je     405e17 <_ZN11__sanitizer12RunFreeHooksEPKv+0x57>
  405e11:	48 89 df             	mov    %rbx,%rdi
  405e14:	5b                   	pop    %rbx
  405e15:	ff e0                	jmpq   *%rax
  405e17:	5b                   	pop    %rbx
  405e18:	c3                   	retq   
  405e19:	0f 1f 80 00 00 00 00 	nopl   0x0(%rax)

0000000000405e20 <__sanitizer_acquire_crash_state>:
  405e20:	b1 01                	mov    $0x1,%cl
  405e22:	86 0d 18 47 0c 00    	xchg   %cl,0xc4718(%rip)        # 4ca540 <_ZZ31__sanitizer_acquire_crash_stateE14in_crash_state>
  405e28:	31 c0                	xor    %eax,%eax
  405e2a:	84 c9                	test   %cl,%cl
  405e2c:	0f 94 c0             	sete   %al
  405e2f:	c3                   	retq   

0000000000405e30 <__sanitizer_install_malloc_and_free_hooks>:
  405e30:	31 c0                	xor    %eax,%eax
  405e32:	48 85 ff             	test   %rdi,%rdi
  405e35:	74 40                	je     405e77 <__sanitizer_install_malloc_and_free_hooks+0x47>
  405e37:	48 85 f6             	test   %rsi,%rsi
  405e3a:	74 3b                	je     405e77 <__sanitizer_install_malloc_and_free_hooks+0x47>
  405e3c:	4c 8d 05 ad 46 0c 00 	lea    0xc46ad(%rip),%r8        # 4ca4f0 <_ZN11__sanitizerL7MFHooksE>
  405e43:	48 83 3d a5 46 0c 00 	cmpq   $0x0,0xc46a5(%rip)        # 4ca4f0 <_ZN11__sanitizerL7MFHooksE>
  405e4a:	00 
  405e4b:	74 2b                	je     405e78 <__sanitizer_install_malloc_and_free_hooks+0x48>
  405e4d:	48 83 3d ab 46 0c 00 	cmpq   $0x0,0xc46ab(%rip)        # 4ca500 <_ZN11__sanitizerL7MFHooksE+0x10>
  405e54:	00 
  405e55:	74 28                	je     405e7f <__sanitizer_install_malloc_and_free_hooks+0x4f>
  405e57:	48 83 3d b1 46 0c 00 	cmpq   $0x0,0xc46b1(%rip)        # 4ca510 <_ZN11__sanitizerL7MFHooksE+0x20>
  405e5e:	00 
  405e5f:	74 2c                	je     405e8d <__sanitizer_install_malloc_and_free_hooks+0x5d>
  405e61:	48 83 3d b7 46 0c 00 	cmpq   $0x0,0xc46b7(%rip)        # 4ca520 <_ZN11__sanitizerL7MFHooksE+0x30>
  405e68:	00 
  405e69:	74 30                	je     405e9b <__sanitizer_install_malloc_and_free_hooks+0x6b>
  405e6b:	31 c0                	xor    %eax,%eax
  405e6d:	48 83 3d bb 46 0c 00 	cmpq   $0x0,0xc46bb(%rip)        # 4ca530 <_ZN11__sanitizerL7MFHooksE+0x40>
  405e74:	00 
  405e75:	74 32                	je     405ea9 <__sanitizer_install_malloc_and_free_hooks+0x79>
  405e77:	c3                   	retq   
  405e78:	31 c0                	xor    %eax,%eax
  405e7a:	4c 89 c2             	mov    %r8,%rdx
  405e7d:	eb 36                	jmp    405eb5 <__sanitizer_install_malloc_and_free_hooks+0x85>
  405e7f:	48 8d 15 7a 46 0c 00 	lea    0xc467a(%rip),%rdx        # 4ca500 <_ZN11__sanitizerL7MFHooksE+0x10>
  405e86:	b8 01 00 00 00       	mov    $0x1,%eax
  405e8b:	eb 28                	jmp    405eb5 <__sanitizer_install_malloc_and_free_hooks+0x85>
  405e8d:	48 8d 15 7c 46 0c 00 	lea    0xc467c(%rip),%rdx        # 4ca510 <_ZN11__sanitizerL7MFHooksE+0x20>
  405e94:	b8 02 00 00 00       	mov    $0x2,%eax
  405e99:	eb 1a                	jmp    405eb5 <__sanitizer_install_malloc_and_free_hooks+0x85>
  405e9b:	48 8d 15 7e 46 0c 00 	lea    0xc467e(%rip),%rdx        # 4ca520 <_ZN11__sanitizerL7MFHooksE+0x30>
  405ea2:	b8 03 00 00 00       	mov    $0x3,%eax
  405ea7:	eb 0c                	jmp    405eb5 <__sanitizer_install_malloc_and_free_hooks+0x85>
  405ea9:	48 8d 15 80 46 0c 00 	lea    0xc4680(%rip),%rdx        # 4ca530 <_ZN11__sanitizerL7MFHooksE+0x40>
  405eb0:	b8 04 00 00 00       	mov    $0x4,%eax
  405eb5:	89 c1                	mov    %eax,%ecx
  405eb7:	48 89 3a             	mov    %rdi,(%rdx)
  405eba:	48 c1 e1 04          	shl    $0x4,%rcx
  405ebe:	4a 89 74 01 08       	mov    %rsi,0x8(%rcx,%r8,1)
  405ec3:	83 c0 01             	add    $0x1,%eax
  405ec6:	c3                   	retq   
  405ec7:	66 0f 1f 84 00 00 00 	nopw   0x0(%rax,%rax,1)
  405ece:	00 00 

0000000000405ed0 <_ZN11__sanitizer24InternalMmapVectorNoCtorIcE7ReallocEm>:
  405ed0:	41 57                	push   %r15
  405ed2:	41 56                	push   %r14
  405ed4:	53                   	push   %rbx
  405ed5:	48 85 f6             	test   %rsi,%rsi
  405ed8:	0f 84 85 00 00 00    	je     405f63 <_ZN11__sanitizer24InternalMmapVectorNoCtorIcE7ReallocEm+0x93>
  405ede:	49 89 f7             	mov    %rsi,%r15
  405ee1:	49 89 fe             	mov    %rdi,%r14
  405ee4:	48 8b 4f 10          	mov    0x10(%rdi),%rcx
  405ee8:	48 39 f1             	cmp    %rsi,%rcx
  405eeb:	0f 87 8f 00 00 00    	ja     405f80 <_ZN11__sanitizer24InternalMmapVectorNoCtorIcE7ReallocEm+0xb0>
  405ef1:	48 8b 1d c8 25 0c 00 	mov    0xc25c8(%rip),%rbx        # 4c84c0 <_ZN11__sanitizer14PageSizeCachedE>
  405ef8:	48 85 db             	test   %rbx,%rbx
  405efb:	75 0f                	jne    405f0c <_ZN11__sanitizer24InternalMmapVectorNoCtorIcE7ReallocEm+0x3c>
  405efd:	e8 8e 81 00 00       	callq  40e090 <_ZN11__sanitizer11GetPageSizeEv>
  405f02:	48 89 c3             	mov    %rax,%rbx
  405f05:	48 89 05 b4 25 0c 00 	mov    %rax,0xc25b4(%rip)        # 4c84c0 <_ZN11__sanitizer14PageSizeCachedE>
  405f0c:	48 8d 43 ff          	lea    -0x1(%rbx),%rax
  405f10:	48 85 c3             	test   %rax,%rbx
  405f13:	0f 85 82 00 00 00    	jne    405f9b <_ZN11__sanitizer24InternalMmapVectorNoCtorIcE7ReallocEm+0xcb>
  405f19:	49 8d 04 1f          	lea    (%r15,%rbx,1),%rax
  405f1d:	48 83 c0 ff          	add    $0xffffffffffffffff,%rax
  405f21:	48 f7 db             	neg    %rbx
  405f24:	48 21 c3             	and    %rax,%rbx
  405f27:	48 8d 35 5a ec 01 00 	lea    0x1ec5a(%rip),%rsi        # 424b88 <_IO_stdin_used+0xb88>
  405f2e:	48 89 df             	mov    %rbx,%rdi
  405f31:	31 d2                	xor    %edx,%edx
  405f33:	e8 e8 88 00 00       	callq  40e820 <_ZN11__sanitizer9MmapOrDieEmPKcb>
  405f38:	49 89 c7             	mov    %rax,%r15
  405f3b:	49 8b 36             	mov    (%r14),%rsi
  405f3e:	49 8b 56 10          	mov    0x10(%r14),%rdx
  405f42:	48 89 c7             	mov    %rax,%rdi
  405f45:	e8 36 4e 00 00       	callq  40ad80 <_ZN11__sanitizer15internal_memcpyEPvPKvm>
  405f4a:	49 8b 3e             	mov    (%r14),%rdi
  405f4d:	49 8b 76 08          	mov    0x8(%r14),%rsi
  405f51:	e8 0a 8a 00 00       	callq  40e960 <_ZN11__sanitizer10UnmapOrDieEPvm>
  405f56:	4d 89 3e             	mov    %r15,(%r14)
  405f59:	49 89 5e 08          	mov    %rbx,0x8(%r14)
  405f5d:	5b                   	pop    %rbx
  405f5e:	41 5e                	pop    %r14
  405f60:	41 5f                	pop    %r15
  405f62:	c3                   	retq   
  405f63:	48 8d 3d c6 e4 01 00 	lea    0x1e4c6(%rip),%rdi        # 424430 <_IO_stdin_used+0x430>
  405f6a:	48 8d 15 e0 eb 01 00 	lea    0x1ebe0(%rip),%rdx        # 424b51 <_IO_stdin_used+0xb51>
  405f71:	be 0b 02 00 00       	mov    $0x20b,%esi
  405f76:	31 c9                	xor    %ecx,%ecx
  405f78:	45 31 c0             	xor    %r8d,%r8d
  405f7b:	e8 e0 d8 00 00       	callq  413860 <_ZN11__sanitizer11CheckFailedEPKciS1_yy>
  405f80:	48 8d 3d a9 e4 01 00 	lea    0x1e4a9(%rip),%rdi        # 424430 <_IO_stdin_used+0x430>
  405f87:	48 8d 15 dc eb 01 00 	lea    0x1ebdc(%rip),%rdx        # 424b6a <_IO_stdin_used+0xb6a>
  405f8e:	be 0c 02 00 00       	mov    $0x20c,%esi
  405f93:	4d 89 f8             	mov    %r15,%r8
  405f96:	e8 c5 d8 00 00       	callq  413860 <_ZN11__sanitizer11CheckFailedEPKciS1_yy>
  405f9b:	48 8d 3d 43 ea 01 00 	lea    0x1ea43(%rip),%rdi        # 4249e5 <_IO_stdin_used+0x9e5>
  405fa2:	e8 89 1f 00 00       	callq  407f30 <_ZN11__sanitizer8RawWriteEPKc>
  405fa7:	e8 d4 d7 00 00       	callq  413780 <_ZN11__sanitizer3DieEv>
  405fac:	0f 1f 40 00          	nopl   0x0(%rax)

0000000000405fb0 <_ZN11__sanitizer9DDetector6CreateEPKNS_7DDFlagsE>:
  405fb0:	53                   	push   %rbx
  405fb1:	48 89 fb             	mov    %rdi,%rbx
  405fb4:	48 8d 35 e0 eb 01 00 	lea    0x1ebe0(%rip),%rsi        # 424b9b <_IO_stdin_used+0xb9b>
  405fbb:	bf 50 0a 41 00       	mov    $0x410a50,%edi
  405fc0:	31 d2                	xor    %edx,%edx
  405fc2:	e8 59 88 00 00       	callq  40e820 <_ZN11__sanitizer9MmapOrDieEmPKcb>
  405fc7:	48 8d 0d 12 08 03 00 	lea    0x30812(%rip),%rcx        # 4367e0 <_ZTVN11__sanitizer2DDE+0x10>
  405fce:	48 89 08             	mov    %rcx,(%rax)
  405fd1:	c6 40 08 00          	movb   $0x0,0x8(%rax)
  405fd5:	8a 0b                	mov    (%rbx),%cl
  405fd7:	88 88 48 0a 41 00    	mov    %cl,0x410a48(%rax)
  405fdd:	0f 57 c0             	xorps  %xmm0,%xmm0
  405fe0:	0f 11 40 10          	movups %xmm0,0x10(%rax)
  405fe4:	48 c7 80 20 02 00 00 	movq   $0x0,0x220(%rax)
  405feb:	00 00 00 00 
  405fef:	b9 48 0c 00 00       	mov    $0xc48,%ecx
  405ff4:	66 2e 0f 1f 84 00 00 	nopw   %cs:0x0(%rax,%rax,1)
  405ffb:	00 00 00 
  405ffe:	66 90                	xchg   %ax,%ax
  406000:	48 c7 84 08 e8 f9 ff 	movq   $0x0,-0x618(%rax,%rcx,1)
  406007:	ff 00 00 00 00 
  40600c:	48 c7 84 08 f0 fb ff 	movq   $0x0,-0x410(%rax,%rcx,1)
  406013:	ff 00 00 00 00 
  406018:	48 c7 84 08 f8 fd ff 	movq   $0x0,-0x208(%rax,%rcx,1)
  40601f:	ff 00 00 00 00 
  406024:	48 c7 04 08 00 00 00 	movq   $0x0,(%rax,%rcx,1)
  40602b:	00 
  40602c:	48 81 c1 20 08 00 00 	add    $0x820,%rcx
  406033:	48 81 f9 48 8c 20 00 	cmp    $0x208c48,%rcx
  40603a:	75 c4                	jne    406000 <_ZN11__sanitizer9DDetector6CreateEPKNS_7DDFlagsE+0x50>
  40603c:	48 c7 80 40 0a 41 00 	movq   $0x0,0x410a40(%rax)
  406043:	00 00 00 00 
  406047:	5b                   	pop    %rbx
  406048:	c3                   	retq   
  406049:	0f 1f 80 00 00 00 00 	nopl   0x0(%rax)

0000000000406050 <_ZN11__sanitizer2DDC1EPKNS_7DDFlagsE>:
  406050:	48 8d 05 89 07 03 00 	lea    0x30789(%rip),%rax        # 4367e0 <_ZTVN11__sanitizer2DDE+0x10>
  406057:	48 89 07             	mov    %rax,(%rdi)
  40605a:	c6 47 08 00          	movb   $0x0,0x8(%rdi)
  40605e:	8a 06                	mov    (%rsi),%al
  406060:	88 87 48 0a 41 00    	mov    %al,0x410a48(%rdi)
  406066:	0f 57 c0             	xorps  %xmm0,%xmm0
  406069:	0f 11 47 10          	movups %xmm0,0x10(%rdi)
  40606d:	48 c7 87 20 02 00 00 	movq   $0x0,0x220(%rdi)
  406074:	00 00 00 00 
  406078:	b8 48 0c 00 00       	mov    $0xc48,%eax
  40607d:	0f 1f 00             	nopl   (%rax)
  406080:	48 c7 84 07 e8 f9 ff 	movq   $0x0,-0x618(%rdi,%rax,1)
  406087:	ff 00 00 00 00 
  40608c:	48 c7 84 07 f0 fb ff 	movq   $0x0,-0x410(%rdi,%rax,1)
  406093:	ff 00 00 00 00 
  406098:	48 c7 84 07 f8 fd ff 	movq   $0x0,-0x208(%rdi,%rax,1)
  40609f:	ff 00 00 00 00 
  4060a4:	48 c7 04 07 00 00 00 	movq   $0x0,(%rdi,%rax,1)
  4060ab:	00 
  4060ac:	48 05 20 08 00 00    	add    $0x820,%rax
  4060b2:	48 3d 48 8c 20 00    	cmp    $0x208c48,%rax
  4060b8:	75 c6                	jne    406080 <_ZN11__sanitizer2DDC1EPKNS_7DDFlagsE+0x30>
  4060ba:	48 c7 87 40 0a 41 00 	movq   $0x0,0x410a40(%rdi)
  4060c1:	00 00 00 00 
  4060c5:	c3                   	retq   
  4060c6:	66 2e 0f 1f 84 00 00 	nopw   %cs:0x0(%rax,%rax,1)
  4060cd:	00 00 00 

00000000004060d0 <_ZN11__sanitizer2DD20CreatePhysicalThreadEv>:
  4060d0:	31 c0                	xor    %eax,%eax
  4060d2:	c3                   	retq   
  4060d3:	66 2e 0f 1f 84 00 00 	nopw   %cs:0x0(%rax,%rax,1)
  4060da:	00 00 00 
  4060dd:	0f 1f 00             	nopl   (%rax)

00000000004060e0 <_ZN11__sanitizer2DD21DestroyPhysicalThreadEPNS_16DDPhysicalThreadE>:
  4060e0:	c3                   	retq   
  4060e1:	66 2e 0f 1f 84 00 00 	nopw   %cs:0x0(%rax,%rax,1)
  4060e8:	00 00 00 
  4060eb:	0f 1f 44 00 00       	nopl   0x0(%rax,%rax,1)

00000000004060f0 <_ZN11__sanitizer2DD19CreateLogicalThreadEy>:
  4060f0:	53                   	push   %rbx
  4060f1:	48 89 f3             	mov    %rsi,%rbx
  4060f4:	bf b8 08 00 00       	mov    $0x8b8,%edi
  4060f9:	31 f6                	xor    %esi,%esi
  4060fb:	31 d2                	xor    %edx,%edx
  4060fd:	e8 de d3 ff ff       	callq  4034e0 <_ZN11__sanitizer13InternalAllocEmPNS_30SizeClassAllocator32LocalCacheINS_20SizeClassAllocator32INS_4AP32EEEEEm>
  406102:	48 89 18             	mov    %rbx,(%rax)
  406105:	48 c7 40 08 00 00 00 	movq   $0x0,0x8(%rax)
  40610c:	00 
  40610d:	48 c7 80 10 02 00 00 	movq   $0x0,0x210(%rax)
  406114:	00 00 00 00 
  406118:	48 c7 80 18 04 00 00 	movq   $0x0,0x418(%rax)
  40611f:	00 00 00 00 
  406123:	48 c7 80 20 06 00 00 	movq   $0x0,0x620(%rax)
  40612a:	00 00 00 00 
  40612e:	c6 80 b0 08 00 00 00 	movb   $0x0,0x8b0(%rax)
  406135:	5b                   	pop    %rbx
  406136:	c3                   	retq   
  406137:	66 0f 1f 84 00 00 00 	nopw   0x0(%rax,%rax,1)
  40613e:	00 00 

0000000000406140 <_ZN11__sanitizer2DD20DestroyLogicalThreadEPNS_15DDLogicalThreadE>:
  406140:	48 89 f7             	mov    %rsi,%rdi
  406143:	31 f6                	xor    %esi,%esi
  406145:	e9 26 d6 ff ff       	jmpq   403770 <_ZN11__sanitizer12InternalFreeEPvPNS_30SizeClassAllocator32LocalCacheINS_20SizeClassAllocator32INS_4AP32EEEEE>
  40614a:	66 0f 1f 44 00 00    	nopw   0x0(%rax,%rax,1)

0000000000406150 <_ZN11__sanitizer2DD9MutexInitEPNS_10DDCallbackEPNS_7DDMutexE>:
  406150:	53                   	push   %rbx
  406151:	48 89 d3             	mov    %rdx,%rbx
  406154:	48 89 f7             	mov    %rsi,%rdi
  406157:	48 c7 02 00 00 00 00 	movq   $0x0,(%rdx)
  40615e:	48 8b 06             	mov    (%rsi),%rax
  406161:	ff 10                	callq  *(%rax)
  406163:	89 43 08             	mov    %eax,0x8(%rbx)
  406166:	5b                   	pop    %rbx
  406167:	c3                   	retq   
  406168:	0f 1f 84 00 00 00 00 	nopl   0x0(%rax,%rax,1)
  40616f:	00 

0000000000406170 <_ZN11__sanitizer2DD13MutexEnsureIDEPNS_15DDLogicalThreadEPNS_7DDMutexE>:
  406170:	41 57                	push   %r15
  406172:	41 56                	push   %r14
  406174:	53                   	push   %rbx
  406175:	49 89 d7             	mov    %rdx,%r15
  406178:	49 89 f6             	mov    %rsi,%r14
  40617b:	48 89 fb             	mov    %rdi,%rbx
  40617e:	48 83 c3 10          	add    $0x10,%rbx
  406182:	48 8b 02             	mov    (%rdx),%rax
  406185:	48 85 c0             	test   %rax,%rax
  406188:	74 1a                	je     4061a4 <_ZN11__sanitizer2DD13MutexEnsureIDEPNS_15DDLogicalThreadEPNS_7DDMutexE+0x34>
  40618a:	48 25 00 f0 ff ff    	and    $0xfffffffffffff000,%rax
  406190:	48 3b 03             	cmp    (%rbx),%rax
  406193:	75 0f                	jne    4061a4 <_ZN11__sanitizer2DD13MutexEnsureIDEPNS_15DDLogicalThreadEPNS_7DDMutexE+0x34>
  406195:	49 39 86 10 02 00 00 	cmp    %rax,0x210(%r14)
  40619c:	75 20                	jne    4061be <_ZN11__sanitizer2DD13MutexEnsureIDEPNS_15DDLogicalThreadEPNS_7DDMutexE+0x4e>
  40619e:	5b                   	pop    %rbx
  40619f:	41 5e                	pop    %r14
  4061a1:	41 5f                	pop    %r15
  4061a3:	c3                   	retq   
  4061a4:	48 89 df             	mov    %rbx,%rdi
  4061a7:	4c 89 fe             	mov    %r15,%rsi
  4061aa:	e8 41 00 00 00       	callq  4061f0 <_ZN11__sanitizer16DeadlockDetectorINS_17TwoLevelBitVectorILm1ENS_14BasicBitVectorImEEEEE7newNodeEm>
  4061af:	49 89 07             	mov    %rax,(%r15)
  4061b2:	48 8b 03             	mov    (%rbx),%rax
  4061b5:	49 39 86 10 02 00 00 	cmp    %rax,0x210(%r14)
  4061bc:	74 e0                	je     40619e <_ZN11__sanitizer2DD13MutexEnsureIDEPNS_15DDLogicalThreadEPNS_7DDMutexE+0x2e>
  4061be:	49 c7 46 08 00 00 00 	movq   $0x0,0x8(%r14)
  4061c5:	00 
  4061c6:	49 89 86 10 02 00 00 	mov    %rax,0x210(%r14)
  4061cd:	49 c7 86 18 04 00 00 	movq   $0x0,0x418(%r14)
  4061d4:	00 00 00 00 
  4061d8:	49 c7 86 20 06 00 00 	movq   $0x0,0x620(%r14)
  4061df:	00 00 00 00 
  4061e3:	5b                   	pop    %rbx
  4061e4:	41 5e                	pop    %r14
  4061e6:	41 5f                	pop    %r15
  4061e8:	c3                   	retq   
  4061e9:	0f 1f 80 00 00 00 00 	nopl   0x0(%rax)

00000000004061f0 <_ZN11__sanitizer16DeadlockDetectorINS_17TwoLevelBitVectorILm1ENS_14BasicBitVectorImEEEEE7newNodeEm>:
  4061f0:	41 57                	push   %r15
  4061f2:	41 56                	push   %r14
  4061f4:	53                   	push   %rbx
  4061f5:	48 83 ec 10          	sub    $0x10,%rsp
  4061f9:	4c 8b 47 08          	mov    0x8(%rdi),%r8
  4061fd:	4d 85 c0             	test   %r8,%r8
  406200:	74 55                	je     406257 <_ZN11__sanitizer16DeadlockDetectorINS_17TwoLevelBitVectorILm1ENS_14BasicBitVectorImEEEEE7newNodeEm+0x67>
  406202:	49 0f bc d0          	bsf    %r8,%rdx
  406206:	41 b9 01 00 00 00    	mov    $0x1,%r9d
  40620c:	89 d1                	mov    %edx,%ecx
  40620e:	49 d3 e1             	shl    %cl,%r9
  406211:	4c 89 c0             	mov    %r8,%rax
  406214:	48 0f b3 d0          	btr    %rdx,%rax
  406218:	48 89 47 08          	mov    %rax,0x8(%rdi)
  40621c:	4c 8b 54 d7 10       	mov    0x10(%rdi,%rdx,8),%r10
  406221:	4d 85 d2             	test   %r10,%r10
  406224:	0f 84 92 04 00 00    	je     4066bc <_ZN11__sanitizer16DeadlockDetectorINS_17TwoLevelBitVectorILm1ENS_14BasicBitVectorImEEEEE7newNodeEm+0x4cc>
  40622a:	49 0f bc c2          	bsf    %r10,%rax
  40622e:	48 c7 c3 fe ff ff ff 	mov    $0xfffffffffffffffe,%rbx
  406235:	89 c1                	mov    %eax,%ecx
  406237:	48 d3 c3             	rol    %cl,%rbx
  40623a:	4c 21 d3             	and    %r10,%rbx
  40623d:	48 89 5c d7 10       	mov    %rbx,0x10(%rdi,%rdx,8)
  406242:	74 07                	je     40624b <_ZN11__sanitizer16DeadlockDetectorINS_17TwoLevelBitVectorILm1ENS_14BasicBitVectorImEEEEE7newNodeEm+0x5b>
  406244:	4d 09 c1             	or     %r8,%r9
  406247:	4c 89 4f 08          	mov    %r9,0x8(%rdi)
  40624b:	48 c1 e2 06          	shl    $0x6,%rdx
  40624f:	48 09 d0             	or     %rdx,%rax
  406252:	e9 71 02 00 00       	jmpq   4064c8 <_ZN11__sanitizer16DeadlockDetectorINS_17TwoLevelBitVectorILm1ENS_14BasicBitVectorImEEEEE7newNodeEm+0x2d8>
  406257:	48 83 bf 10 02 00 00 	cmpq   $0x0,0x210(%rdi)
  40625e:	00 
  40625f:	0f 84 78 02 00 00    	je     4064dd <_ZN11__sanitizer16DeadlockDetectorINS_17TwoLevelBitVectorILm1ENS_14BasicBitVectorImEEEEE7newNodeEm+0x2ed>
  406265:	4c 8b 87 30 0a 41 00 	mov    0x410a30(%rdi),%r8
  40626c:	4d 89 c1             	mov    %r8,%r9
  40626f:	49 83 c1 ff          	add    $0xffffffffffffffff,%r9
  406273:	0f 88 02 01 00 00    	js     40637b <_ZN11__sanitizer16DeadlockDetectorINS_17TwoLevelBitVectorILm1ENS_14BasicBitVectorImEEEEE7newNodeEm+0x18b>
  406279:	4c 89 c0             	mov    %r8,%rax
  40627c:	48 c1 e0 04          	shl    $0x4,%rax
  406280:	4c 8d 14 38          	lea    (%rax,%rdi,1),%r10
  406284:	49 81 c2 20 0a 21 00 	add    $0x210a20,%r10
  40628b:	eb 4b                	jmp    4062d8 <_ZN11__sanitizer16DeadlockDetectorINS_17TwoLevelBitVectorILm1ENS_14BasicBitVectorImEEEEE7newNodeEm+0xe8>
  40628d:	0f 1f 00             	nopl   (%rax)
  406290:	49 c1 e0 04          	shl    $0x4,%r8
  406294:	41 0f 10 02          	movups (%r10),%xmm0
  406298:	0f 29 04 24          	movaps %xmm0,(%rsp)
  40629c:	41 0f 10 84 38 20 0a 	movups 0x210a20(%r8,%rdi,1),%xmm0
  4062a3:	21 00 
  4062a5:	41 0f 11 02          	movups %xmm0,(%r10)
  4062a9:	66 0f 6f 04 24       	movdqa (%rsp),%xmm0
  4062ae:	f3 41 0f 7f 84 38 20 	movdqu %xmm0,0x210a20(%r8,%rdi,1)
  4062b5:	0a 21 00 
  4062b8:	4c 8b 87 30 0a 41 00 	mov    0x410a30(%rdi),%r8
  4062bf:	49 83 c0 ff          	add    $0xffffffffffffffff,%r8
  4062c3:	4c 89 87 30 0a 41 00 	mov    %r8,0x410a30(%rdi)
  4062ca:	49 83 c2 f0          	add    $0xfffffffffffffff0,%r10
  4062ce:	49 83 c1 ff          	add    $0xffffffffffffffff,%r9
  4062d2:	0f 88 98 00 00 00    	js     406370 <_ZN11__sanitizer16DeadlockDetectorINS_17TwoLevelBitVectorILm1ENS_14BasicBitVectorImEEEEE7newNodeEm+0x180>
  4062d8:	41 0f b7 0a          	movzwl (%r10),%ecx
  4062dc:	48 81 f9 01 10 00 00 	cmp    $0x1001,%rcx
  4062e3:	0f 83 b5 03 00 00    	jae    40669e <_ZN11__sanitizer16DeadlockDetectorINS_17TwoLevelBitVectorILm1ENS_14BasicBitVectorImEEEEE7newNodeEm+0x4ae>
  4062e9:	48 89 ca             	mov    %rcx,%rdx
  4062ec:	48 c1 ea 0c          	shr    $0xc,%rdx
  4062f0:	89 c8                	mov    %ecx,%eax
  4062f2:	c1 e8 06             	shr    $0x6,%eax
  4062f5:	48 8b 9c d7 10 02 00 	mov    0x210(%rdi,%rdx,8),%rbx
  4062fc:	00 
  4062fd:	48 0f a3 c3          	bt     %rax,%rbx
  406301:	73 1c                	jae    40631f <_ZN11__sanitizer16DeadlockDetectorINS_17TwoLevelBitVectorILm1ENS_14BasicBitVectorImEEEEE7newNodeEm+0x12f>
  406303:	83 e0 3f             	and    $0x3f,%eax
  406306:	48 c1 e2 09          	shl    $0x9,%rdx
  40630a:	48 01 fa             	add    %rdi,%rdx
  40630d:	48 8b 84 c2 18 02 00 	mov    0x218(%rdx,%rax,8),%rax
  406314:	00 
  406315:	48 0f a3 c8          	bt     %rcx,%rax
  406319:	0f 82 71 ff ff ff    	jb     406290 <_ZN11__sanitizer16DeadlockDetectorINS_17TwoLevelBitVectorILm1ENS_14BasicBitVectorImEEEEE7newNodeEm+0xa0>
  40631f:	41 0f b7 4a 02       	movzwl 0x2(%r10),%ecx
  406324:	48 81 f9 01 10 00 00 	cmp    $0x1001,%rcx
  40632b:	0f 83 6d 03 00 00    	jae    40669e <_ZN11__sanitizer16DeadlockDetectorINS_17TwoLevelBitVectorILm1ENS_14BasicBitVectorImEEEEE7newNodeEm+0x4ae>
  406331:	48 89 ca             	mov    %rcx,%rdx
  406334:	48 c1 ea 0c          	shr    $0xc,%rdx
  406338:	89 c8                	mov    %ecx,%eax
  40633a:	c1 e8 06             	shr    $0x6,%eax
  40633d:	48 8b 9c d7 10 02 00 	mov    0x210(%rdi,%rdx,8),%rbx
  406344:	00 
  406345:	48 0f a3 c3          	bt     %rax,%rbx
  406349:	0f 83 7b ff ff ff    	jae    4062ca <_ZN11__sanitizer16DeadlockDetectorINS_17TwoLevelBitVectorILm1ENS_14BasicBitVectorImEEEEE7newNodeEm+0xda>
  40634f:	83 e0 3f             	and    $0x3f,%eax
  406352:	48 c1 e2 09          	shl    $0x9,%rdx
  406356:	48 01 fa             	add    %rdi,%rdx
  406359:	48 8b 84 c2 18 02 00 	mov    0x218(%rdx,%rax,8),%rax
  406360:	00 
  406361:	48 0f a3 c8          	bt     %rcx,%rax
  406365:	0f 82 25 ff ff ff    	jb     406290 <_ZN11__sanitizer16DeadlockDetectorINS_17TwoLevelBitVectorILm1ENS_14BasicBitVectorImEEEEE7newNodeEm+0xa0>
  40636b:	e9 5a ff ff ff       	jmpq   4062ca <_ZN11__sanitizer16DeadlockDetectorINS_17TwoLevelBitVectorILm1ENS_14BasicBitVectorImEEEEE7newNodeEm+0xda>
  406370:	48 83 7f 08 00       	cmpq   $0x0,0x8(%rdi)
  406375:	0f 85 76 03 00 00    	jne    4066f1 <_ZN11__sanitizer16DeadlockDetectorINS_17TwoLevelBitVectorILm1ENS_14BasicBitVectorImEEEEE7newNodeEm+0x501>
  40637b:	4c 8b 87 10 02 00 00 	mov    0x210(%rdi),%r8
  406382:	45 31 c9             	xor    %r9d,%r9d
  406385:	eb 16                	jmp    40639d <_ZN11__sanitizer16DeadlockDetectorINS_17TwoLevelBitVectorILm1ENS_14BasicBitVectorImEEEEE7newNodeEm+0x1ad>
  406387:	66 0f 1f 84 00 00 00 	nopw   0x0(%rax,%rax,1)
  40638e:	00 00 
  406390:	49 83 c1 01          	add    $0x1,%r9
  406394:	49 81 f9 00 10 00 00 	cmp    $0x1000,%r9
  40639b:	74 6b                	je     406408 <_ZN11__sanitizer16DeadlockDetectorINS_17TwoLevelBitVectorILm1ENS_14BasicBitVectorImEEEEE7newNodeEm+0x218>
  40639d:	4c 89 c8             	mov    %r9,%rax
  4063a0:	48 c1 e0 09          	shl    $0x9,%rax
  4063a4:	4e 8d 14 c8          	lea    (%rax,%r9,8),%r10
  4063a8:	4e 8b b4 17 20 06 00 	mov    0x620(%rdi,%r10,1),%r14
  4063af:	00 
  4063b0:	4d 89 c7             	mov    %r8,%r15
  4063b3:	4d 21 f7             	and    %r14,%r15
  4063b6:	74 d8                	je     406390 <_ZN11__sanitizer16DeadlockDetectorINS_17TwoLevelBitVectorILm1ENS_14BasicBitVectorImEEEEE7newNodeEm+0x1a0>
  4063b8:	4e 8d 1c 17          	lea    (%rdi,%r10,1),%r11
